(dp0
S'Imperial County, California'
p1
(dp2
S'latitude'
p3
F33.0113694
sS'longitude'
p4
F-115.4733554
ssS'Henderson County, North Carolina'
p5
(dp6
g3
F35.3725873
sg4
F-82.4319405
ssS'Saguache County, Colorado'
p7
(dp8
g3
F38.0019623
sg4
F-106.3463791
ssS'Monmouth County, New Jersey'
p9
(dp10
g3
F40.2589455
sg4
F-74.12399599999999
ssS'Ottawa County, Oklahoma'
p11
(dp12
g3
F36.7710787
sg4
F-94.81059549999999
ssS'Grayson County, Kentucky'
p13
(dp14
g3
F37.4554962
sg4
F-86.3782198
ssS'Conejos County, Colorado'
p15
(dp16
g3
F37.2689711
sg4
F-106.2522143
ssS'Richmond County, New York'
p17
(dp18
g3
F40.5795317
sg4
F-74.1502007
ssS'Wilcox County, Alabama'
p19
(dp20
g3
F32.0105439
sg4
F-87.3413599
ssS'Stark County, Illinois'
p21
(dp22
g3
F41.0795661
sg4
F-89.81303559999999
ssS'York County, Virginia'
p23
(dp24
g3
F37.2103925
sg4
F-76.3868797
ssS'Warren County, New Jersey'
p25
(dp26
g3
F40.8841854
sg4
F-74.92087719999999
ssS'Beaufort County, South Carolina'
p27
(dp28
g3
F32.2860396
sg4
F-80.7214417
ssS'Blair County, Pennsylvania'
p29
(dp30
g3
F40.4531318
sg4
F-78.3842227
ssS'Lee County, Florida'
p31
(dp32
g3
F26.6630286
sg4
F-81.9534815
ssS'Stone County, Arkansas'
p33
(dp34
g3
F35.8075142
sg4
F-92.2236667
ssS'Mecklenburg County, Virginia'
p35
(dp36
g3
F36.6421724
sg4
F-78.3842227
ssS'Bayfield County, Wisconsin'
p37
(dp38
g3
F46.6650481
sg4
F-91.12220070000001
ssS'Martin County, Indiana'
p39
(dp40
g3
F38.6937856
sg4
F-86.8220341
ssS'Leon County, Florida'
p41
(dp42
g3
F30.4906177
sg4
F-84.1857115
ssS'Noble County, Indiana'
p43
(dp44
g3
F41.4277391
sg4
F-85.35496499999999
ssS'New London County, Connecticut'
p45
(dp46
g3
F41.5185189
sg4
F-72.0468164
ssS'Tarrant County, Texas'
p47
(dp48
g3
F32.7732044
sg4
F-97.35165579999999
ssS'Casey County, Kentucky'
p49
(dp50
g3
F37.3157449
sg4
F-84.8984775
ssS'Wabaunsee County, Kansas'
p51
(dp52
g3
F38.9092089
sg4
F-96.15269850000001
ssS'Midland County, Michigan'
p53
(dp54
g3
F43.57509779999999
sg4
F-84.3542049
ssS'Grand Traverse County, Michigan'
p55
(dp56
g3
F44.687984
sg4
F-85.52002399999999
ssS'Bell County, Texas'
p57
(dp58
g3
F31.134411
sg4
F-97.5247243
ssS'Glynn County, Georgia'
p59
(dp60
g3
F31.2624169
sg4
F-81.6035062
ssS'Teller County, Colorado'
p61
(dp62
g3
F38.86115789999999
sg4
F-105.1726816
ssS'Itawamba County, Mississippi'
p63
(dp64
g3
F34.2317882
sg4
F-88.4016041
ssS'Iberia Parish, Louisiana'
p65
(dp66
g3
F29.9306724
sg4
F-91.60769599999999
ssS'Oconee County, Georgia'
p67
(dp68
g3
F33.8231988
sg4
F-83.4430118
ssS'Loudoun County, Virginia'
p69
(dp70
g3
F39.076767
sg4
F-77.6536125
ssS'Alexander County, Illinois'
p71
(dp72
g3
F37.1670164
sg4
F-89.3606298
ssS'Concho County, Texas'
p73
(dp74
g3
F31.3431641
sg4
F-99.8124935
ssS'Westmoreland County, Virginia'
p75
(dp76
g3
F38.112732
sg4
F-76.7798172
ssS'Yavapai County, Arizona'
p77
(dp78
g3
F34.6463981
sg4
F-112.4291464
ssS'Spalding County, Georgia'
p79
(dp80
g3
F33.2636732
sg4
F-84.3121264
ssS'Iowa County, Wisconsin'
p81
(dp82
g3
F42.9416737
sg4
F-90.0746767
ssS'Taylor County, Texas'
p83
(dp84
g3
F32.2455088
sg4
F-99.8124935
ssS'Northampton County, North Carolina'
p85
(dp86
g3
F36.4159635
sg4
F-77.4242972
ssS'Macoupin County, Illinois'
p87
(dp88
g3
F39.2375268
sg4
F-89.9253233
ssS'Washburn County, Wisconsin'
p89
(dp90
g3
F45.9657186
sg4
F-91.8148946
ssS'Calhoun County, Arkansas'
p91
(dp92
g3
F33.5020885
sg4
F-92.539603
ssS'Yoakum County, Texas'
p93
(dp94
g3
F33.2114703
sg4
F-102.8975098
ssS'Greene County, Illinois'
p95
(dp96
g3
F39.4029862
sg4
F-90.37483540000001
ssS'Sauk County, Wisconsin'
p97
(dp98
g3
F43.4066375
sg4
F-89.9253233
ssS'Lancaster County, Pennsylvania'
p99
(dp100
g3
F40.0466571
sg4
F-76.17837390000001
ssS'Pulaski County, Georgia'
p101
(dp102
g3
F32.232644
sg4
F-83.46435509999999
ssS'Clinton County, Kentucky'
p103
(dp104
g3
F36.7263899
sg4
F-85.14793639999999
ssS'Borden County, Texas'
p105
(dp106
g3
F32.82331080000001
sg4
F-101.4339148
ssS'East Feliciana Parish, Louisiana'
p107
(dp108
g3
F30.8458948
sg4
F-91.02032240000001
ssS'Effingham County, Illinois'
p109
(dp110
g3
F39.06217729999999
sg4
F-88.55653099999999
ssS'Morris County, Kansas'
p111
(dp112
g3
F38.7144832
sg4
F-96.663812
ssS'Pend Oreille County, Washington'
p113
(dp114
g3
F48.43590649999999
sg4
F-117.3173375
ssS'Lincoln County, Nevada'
p115
(dp116
g3
F37.660825
sg4
F-114.524264
ssS'Lackawanna County, Pennsylvania'
p117
(dp118
g3
F41.4421199
sg4
F-75.5742467
ssS'Scott County, Iowa'
p119
(dp120
g3
F41.6393199
sg4
F-90.6393702
ssS'Ashtabula County, Ohio'
p121
(dp122
g3
F41.9396982
sg4
F-80.7214417
ssS'Charlevoix County, Michigan'
p123
(dp124
g3
F45.2442166
sg4
F-85.06190389999999
ssS'Jackson County, Georgia'
p125
(dp126
g3
F34.1174511
sg4
F-83.54965659999999
ssS'Whitman County, Washington'
p127
(dp128
g3
F46.8363403
sg4
F-117.5887295
ssS'Luce County, Michigan'
p129
(dp130
g3
F46.5827512
sg4
F-85.513329
ssS'Camden County, Missouri'
p131
(dp132
g3
F38.0322944
sg4
F-92.6983868
ssS'Bradley County, Tennessee'
p133
(dp134
g3
F35.1937778
sg4
F-84.8567932
ssS'Gladwin County, Michigan'
p135
(dp136
g3
F44.0327885
sg4
F-84.3542049
ssS'Lenawee County, Michigan'
p137
(dp138
g3
F41.8433859
sg4
F-84.01674229999999
ssS'Crosby County, Texas'
p139
(dp140
g3
F33.5500004
sg4
F-101.2523792
ssS'Lewis County, Idaho'
p141
(dp142
g3
F46.2664791
sg4
F-116.4054092
ssS'Kent County, Michigan'
p143
(dp144
g3
F43.0097027
sg4
F-85.52002399999999
ssS'Panola County, Texas'
p145
(dp146
g3
F32.1920035
sg4
F-94.315422
ssS'New Castle County, Delaware'
p147
(dp148
g3
F39.5392979
sg4
F-75.667356
ssS'Darke County, Ohio'
p149
(dp150
g3
F40.1056572
sg4
F-84.68974949999999
ssS'Camden County, New Jersey'
p151
(dp152
g3
F39.8592439
sg4
F-75.0143824
ssS'Anne Arundel County, Maryland'
p153
(dp154
g3
F38.9530109
sg4
F-76.5488232
ssS'Butler County, Pennsylvania'
p155
(dp156
g3
F40.9115243
sg4
F-79.8296743
ssS'Humboldt County, California'
p157
(dp158
g3
F40.7450055
sg4
F-123.8695086
ssS'Lake County, Montana'
p159
(dp160
g3
F47.671374
sg4
F-114.1339242
ssS'Hunt County, Texas'
p161
(dp162
g3
F33.1967938
sg4
F-96.15269850000001
ssS'Clay County, Missouri'
p163
(dp164
g3
F39.3176186
sg4
F-94.479976
ssS'Henry County, Georgia'
p165
(dp166
g3
F33.4347963
sg4
F-84.14351359999999
ssS'Tipton County, Tennessee'
p167
(dp168
g3
F35.5217179
sg4
F-89.7379958
ssS'Grant County, Indiana'
p169
(dp170
g3
F40.4730605
sg4
F-85.684578
ssS'Jefferson County, Ohio'
p171
(dp172
g3
F40.38717219999999
sg4
F-80.7657804
ssS'Shelby County, Texas'
p173
(dp174
g3
F31.8343021
sg4
F-94.15137639999999
ssS'Whitfield County, Georgia'
p175
(dp176
g3
F34.8033566
sg4
F-84.981754
ssS'Woodbury County, Iowa'
p177
(dp178
g3
F42.3166158
sg4
F-95.9832577
ssS'Bryan County, Georgia'
p179
(dp180
g3
F32.0236584
sg4
F-81.47183869999999
ssS'Cheshire County, New Hampshire'
p181
(dp182
g3
F42.9259375
sg4
F-72.236379
ssS'Carbon County, Pennsylvania'
p183
(dp184
g3
F40.901975
sg4
F-75.667356
ssS'Benton County, Mississippi'
p185
(dp186
g3
F34.7712669
sg4
F-89.1705998
ssS'Sandusky County, Ohio'
p187
(dp188
g3
F41.3559092
sg4
F-83.12200740000002
ssS'Somerset County, Pennsylvania'
p189
(dp190
g3
F40.022493
sg4
F-78.9288242
ssS'Clear Creek County, Colorado'
p191
(dp192
g3
F39.6904464
sg4
F-105.6412527
ssS'Hopkins County, Texas'
p193
(dp194
g3
F33.2282942
sg4
F-95.4777811
ssS'Hernando County, Florida'
p195
(dp196
g3
F28.5578826
sg4
F-82.4752757
ssS'Delaware County, Iowa'
p197
(dp198
g3
F42.4634009
sg4
F-91.44346900000001
ssS'Hood River County, Oregon'
p199
(dp200
g3
F45.5605475
sg4
F-121.6378798
ssS'Lyon County, Iowa'
p201
(dp202
g3
F43.3954333
sg4
F-96.15269850000001
ssS'Hudson County, New Jersey'
p203
(dp204
g3
F40.7453199
sg4
F-74.05351259999999
ssS'Washington County, Utah'
p205
(dp206
g3
F37.3224877
sg4
F-113.4776098
ssS'Goodhue County, Minnesota'
p207
(dp208
g3
F44.4430251
sg4
F-92.6983868
ssS'Tallapoosa County, Alabama'
p209
(dp210
g3
F32.9201244
sg4
F-85.84862360000001
ssS'Middlesex County, Virginia'
p211
(dp212
g3
F37.6040106
sg4
F-76.5257007
ssS'Essex County, Virginia'
p213
(dp214
g3
F37.9671684
sg4
F-76.964306
ssS'Atoka County, Oklahoma'
p215
(dp216
g3
F34.4509901
sg4
F-95.9832577
ssS'Harris County, Georgia'
p217
(dp218
g3
F32.7032697
sg4
F-84.8567932
ssS'Cooke County, Texas'
p219
(dp220
g3
F33.6672185
sg4
F-97.35165579999999
ssS'Wagoner County, Oklahoma'
p221
(dp222
g3
F35.91923970000001
sg4
F-95.51973939999999
ssS'Leon County, Texas'
p223
(dp224
g3
F31.2152685
sg4
F-95.9832577
ssS'Blue Earth County, Minnesota'
p225
(dp226
g3
F43.9505132
sg4
F-93.9878427
ssS'Grand County, Colorado'
p227
(dp228
g3
F40.0727382
sg4
F-106.0640179
ssS'Breckinridge County, Kentucky'
p229
(dp230
g3
F37.7982002
sg4
F-86.4592091
ssS'Auglaize County, Ohio'
p231
(dp232
g3
F40.5781556
sg4
F-84.3542049
ssS'Jasper County, Texas'
p233
(dp234
g3
F30.9263644
sg4
F-93.9878427
ssS'St. Clair County, Alabama'
p235
(dp236
g3
F33.6530112
sg4
F-86.3376761
ssS'Yolo County, California'
p237
(dp238
g3
F38.7646021
sg4
F-121.9017954
ssS'Beaufort County, North Carolina'
p239
(dp240
g3
F35.4613504
sg4
F-76.91820969999999
ssS'Pamlico County, North Carolina'
p241
(dp242
g3
F35.1337865
sg4
F-76.6874701
ssS'Terrell County, Texas'
p243
(dp244
g3
F30.2348611
sg4
F-102.1632718
ssS'Scioto County, Ohio'
p245
(dp246
g3
F38.861065
sg4
F-82.99316069999999
ssS'Grant Parish, Louisiana'
p247
(dp248
g3
F31.6943716
sg4
F-92.539603
ssS'Crawford County, Iowa'
p249
(dp250
g3
F42.034686
sg4
F-95.3102505
ssS'Hall County, Georgia'
p251
(dp252
g3
F34.30778
sg4
F-83.804868
ssS'Winnebago County, Iowa'
p253
(dp254
g3
F43.3481922
sg4
F-93.66232389999999
ssS'Butts County, Georgia'
p255
(dp256
g3
F33.2691443
sg4
F-83.9532571
ssS'Adams County, Iowa'
p257
(dp258
g3
F41.0652066
sg4
F-94.6863782
ssS'Tuscarawas County, Ohio'
p259
(dp260
g3
F40.3978972
sg4
F-81.42789839999999
ssS'Treutlen County, Georgia'
p261
(dp262
g3
F32.3870233
sg4
F-82.5834947
ssS'Ector County, Texas'
p263
(dp264
g3
F31.8246483
sg4
F-102.5298028
ssS'Emporia city, Virginia'
p265
(dp266
g3
F36.6859829
sg4
F-77.5424809
ssS'Lewis and Clark County, Montana'
p267
(dp268
g3
F47.2963974
sg4
F-112.4029787
ssS'Arenac County, Michigan'
p269
(dp270
g3
F43.9973355
sg4
F-83.67739279999999
ssS'Wayne County, New York'
p271
(dp272
g3
F43.2020024
sg4
F-77.010385
ssS'Thurston County, Washington'
p273
(dp274
g3
F46.8645747
sg4
F-122.7695986
ssS'Jim Wells County, Texas'
p275
(dp276
g3
F27.7841718
sg4
F-98.04651849999999
ssS'Fairfax County, Virginia'
p277
(dp278
g3
F38.9085472
sg4
F-77.2405153
ssS'Washington County, Pennsylvania'
p279
(dp280
g3
F40.1367719
sg4
F-80.1875065
ssS'Monroe County, Mississippi'
p281
(dp282
g3
F33.8773585
sg4
F-88.55653099999999
ssS'Mills County, Iowa'
p283
(dp284
g3
F41.0624496
sg4
F-95.6457951
ssS'Marengo County, Alabama'
p285
(dp286
g3
F32.2459085
sg4
F-87.77633329999999
ssS'Tyler County, Texas'
p287
(dp288
g3
F30.7324447
sg4
F-94.315422
ssS'Hawaii County, Hawaii'
p289
(dp290
g3
F19.5429151
sg4
F-155.6658568
ssS'Lyon County, Kansas'
p291
(dp292
g3
F38.4078037
sg4
F-96.15269850000001
ssS'Calhoun County, Florida'
p293
(dp294
g3
F30.3475302
sg4
F-85.1894045
ssS'Jefferson County, Missouri'
p295
(dp296
g3
F38.2310301
sg4
F-90.52578229999999
ssS'Grant County, West Virginia'
p297
(dp298
g3
F39.1042079
sg4
F-79.1548533
ssS'Madison County, Mississippi'
p299
(dp300
g3
F32.6729459
sg4
F-90.0373201
ssS'Tom Green County, Texas'
p301
(dp302
g3
F31.3839017
sg4
F-100.439656
ssS'Macomb County, Michigan'
p303
(dp304
g3
F42.7168759
sg4
F-82.82097399999999
ssS'McDowell County, West Virginia'
p305
(dp306
g3
F37.3860467
sg4
F-81.64734399999999
ssS'Franklin County, New York'
p307
(dp308
g3
F44.5926135
sg4
F-74.3387798
ssS'Santa Clara County, California'
p309
(dp310
g3
F37.3336581
sg4
F-121.8907041
ssS'Coffey County, Kansas'
p311
(dp312
g3
F38.2570639
sg4
F-95.81428849999999
ssS'Utah County, Utah'
p313
(dp314
g3
F40.0966287
sg4
F-111.5706786
ssS'Bibb County, Alabama'
p315
(dp316
g3
F32.9562798
sg4
F-87.14228949999999
ssS'Wyandot County, Ohio'
p317
(dp318
g3
F40.8471492
sg4
F-83.33618799999999
ssS'Franklin County, Tennessee'
p319
(dp320
g3
F35.1946865
sg4
F-86.05296039999999
ssS'Custer County, Colorado'
p321
(dp322
g3
F38.0615578
sg4
F-105.3131185
ssS'Lincoln County, North Carolina'
p323
(dp324
g3
F35.4637028
sg4
F-81.20781640000001
ssS'Otero County, Colorado'
p325
(dp326
g3
F37.9397663
sg4
F-103.6362715
ssS'Hampton city, Virginia'
p327
(dp328
g3
F37.0298687
sg4
F-76.34522179999999
ssS'Guadalupe County, Texas'
p329
(dp330
g3
F29.6477307
sg4
F-97.87216
ssS'McDowell County, North Carolina'
p331
(dp332
g3
F35.6984405
sg4
F-82.08429009999999
ssS'Sanders County, Montana'
p333
(dp334
g3
F47.61094629999999
sg4
F-115.1316944
ssS'El Paso County, Colorado'
p335
(dp336
g3
F38.9108325
sg4
F-104.4723301
ssS'Greene County, Iowa'
p337
(dp338
g3
F42.0700527
sg4
F-94.479976
ssS'Nacogdoches County, Texas'
p339
(dp340
g3
F31.6353071
sg4
F-94.645035
ssS'Mathews County, Virginia'
p341
(dp342
g3
F37.3912302
sg4
F-76.317414
ssS'Goliad County, Texas'
p343
(dp344
g3
F28.5673709
sg4
F-97.35165579999999
ssS'Fulton County, Indiana'
p345
(dp346
g3
F41.0204161
sg4
F-86.2970998
ssS'Cascade County, Montana'
p347
(dp348
g3
F47.4688355
sg4
F-111.5453228
ssS'Halifax County, Virginia'
p349
(dp350
g3
F36.6945049
sg4
F-78.9288242
ssS'Peoria County, Illinois'
p351
(dp352
g3
F40.7156396
sg4
F-89.77553379999999
ssS'Maverick County, Texas'
p353
(dp354
g3
F28.7410473
sg4
F-100.3497895
ssS'Rusk County, Wisconsin'
p355
(dp356
g3
F45.51936490000001
sg4
F-91.1563029
ssS'Clarendon County, South Carolina'
p357
(dp358
g3
F33.6734243
sg4
F-80.1875065
ssS'Elbert County, Colorado'
p359
(dp360
g3
F39.35370040000001
sg4
F-104.1930918
ssS'Dawson County, Texas'
p361
(dp362
g3
F32.7717423
sg4
F-101.9804613
ssS'Grant County, North Dakota'
p363
(dp364
g3
F46.3951108
sg4
F-101.5535564
ssS'Monroe County, Ohio'
p365
(dp366
g3
F39.7199038
sg4
F-81.0754657
ssS'Dillon County, South Carolina'
p367
(dp368
g3
F34.3596012
sg4
F-79.4253776
ssS'Williams County, North Dakota'
p369
(dp370
g3
F48.432044
sg4
F-103.2923954
ssS'Mifflin County, Pennsylvania'
p371
(dp372
g3
F40.652279
sg4
F-77.6077865
ssS'Hampshire County, West Virginia'
p373
(dp374
g3
F39.3349019
sg4
F-78.5660852
ssS'Jackson County, Kentucky'
p375
(dp376
g3
F37.4023274
sg4
F-84.01674229999999
ssS'Lawrence County, Alabama'
p377
(dp378
g3
F34.567428
sg4
F-87.30161319999999
ssS'Bacon County, Georgia'
p379
(dp380
g3
F31.5412085
sg4
F-82.4319405
ssS'Van Wert County, Ohio'
p381
(dp382
g3
F40.871234
sg4
F-84.56414699999999
ssS'Nicholas County, West Virginia'
p383
(dp384
g3
F38.3307714
sg4
F-80.7657804
ssS'Marion County, Texas'
p385
(dp386
g3
F32.7780679
sg4
F-94.35651299999999
ssS'Rappahannock County, Virginia'
p387
(dp388
g3
F38.6762327
sg4
F-78.1564432
ssS'Atkinson County, Georgia'
p389
(dp390
g3
F31.2932161
sg4
F-82.8640623
ssS'Lake County, Colorado'
p391
(dp392
g3
F39.1941167
sg4
F-106.2992912
ssS'Calhoun County, South Carolina'
p393
(dp394
g3
F33.6738638
sg4
F-80.7657804
ssS'Kent County, Delaware'
p395
(dp396
g3
F39.1440612
sg4
F-75.4344727
ssS'Grayson County, Texas'
p397
(dp398
g3
F33.7062406
sg4
F-96.663812
ssS'Kenosha County, Wisconsin'
p399
(dp400
g3
F42.5810954
sg4
F-88.05337519999999
ssS'Izard County, Arkansas'
p401
(dp402
g3
F36.1610924
sg4
F-91.9099238
ssS'Wichita County, Texas'
p403
(dp404
g3
F33.9309651
sg4
F-98.7481167
ssS'Bledsoe County, Tennessee'
p405
(dp406
g3
F35.6028856
sg4
F-85.2308414
ssS'St. Bernard Parish, Louisiana'
p407
(dp408
g3
F29.879791
sg4
F-89.3226954
ssS'Pinellas County, Florida'
p409
(dp410
g3
F27.876394
sg4
F-82.7778579
ssS"Prince George's County, Maryland"
p411
(dp412
g3
F38.78492110000001
sg4
F-76.8720961
ssS'Logan County, Kentucky'
p413
(dp414
g3
F36.869834
sg4
F-86.86218269999999
ssS'Coleman County, Texas'
p415
(dp416
g3
F31.7320219
sg4
F-99.456155
ssS'Barron County, Wisconsin'
p417
(dp418
g3
F45.3607574
sg4
F-91.77694799999999
ssS'Lexington County, South Carolina'
p419
(dp420
g3
F33.9309651
sg4
F-81.2518833
ssS"Rocky Boy's Indian Reservation, Montana"
p421
(dp422
g3
F48.2502654
sg4
F-109.8007576
ssS'Ste. Genevieve County, Missouri'
p423
(dp424
g3
F37.8934532
sg4
F-90.2244662
ssS'Choctaw County, Alabama'
p425
(dp426
g3
F32.0716631
sg4
F-88.24611829999999
ssS'Contra Costa County, California'
p427
(dp428
g3
F37.8534093
sg4
F-121.9017954
ssS'Yadkin County, North Carolina'
p429
(dp430
g3
F36.2023597
sg4
F-80.6770787
ssS'Ozaukee County, Wisconsin'
p431
(dp432
g3
F43.36771299999999
sg4
F-87.927309
ssS'Boone County, Kentucky'
p433
(dp434
g3
F38.9940572
sg4
F-84.7315563
ssS'Jefferson County, Georgia'
p435
(dp436
g3
F33.0740753
sg4
F-82.4319405
ssS'Bexar County, Texas'
p437
(dp438
g3
F29.4200763
sg4
F-98.5721016
ssS'Davis County, Iowa'
p439
(dp440
g3
F40.6913838
sg4
F-92.38136209999999
ssS'Fairfield County, South Carolina'
p441
(dp442
g3
F34.4478348
sg4
F-81.0754657
ssS'Allen County, Indiana'
p443
(dp444
g3
F41.0932622
sg4
F-85.02334599999999
ssS'Shackelford County, Texas'
p445
(dp446
g3
F32.8242297
sg4
F-99.2785583
ssS'St. Tammany Parish, Louisiana'
p447
(dp448
g3
F30.4357418
sg4
F-89.9253233
ssS'Harding County, New Mexico'
p449
(dp450
g3
F35.8925537
sg4
F-103.8216261
ssS'Dawson County, Georgia'
p451
(dp452
g3
F34.412912
sg4
F-84.14351359999999
ssS'Union County, New Jersey'
p453
(dp454
g3
F40.6595001
sg4
F-74.2883536
ssS'Cumberland County, North Carolina'
p455
(dp456
g3
F34.9542604
sg4
F-78.74762079999999
ssS'Crittenden County, Arkansas'
p457
(dp458
g3
F35.3021443
sg4
F-90.37483540000001
ssS'Bedford city, Virginia'
p459
(dp460
g3
F37.3343079
sg4
F-79.52308769999999
ssS'Rankin County, Mississippi'
p461
(dp462
g3
F32.2653668
sg4
F-89.9253233
ssS'Lincoln County, Wisconsin'
p463
(dp464
g3
F45.3743102
sg4
F-89.7725799
ssS'Moultrie County, Illinois'
p465
(dp466
g3
F39.6020543
sg4
F-88.59517509999999
ssS'Denton County, Texas'
p467
(dp468
g3
F33.1418611
sg4
F-97.179026
ssS'Pettis County, Missouri'
p469
(dp470
g3
F38.6893153
sg4
F-93.33889169999999
ssS'Washington County, Maryland'
p471
(dp472
g3
F39.641762
sg4
F-77.719993
ssS'Buena Vista County, Iowa'
p473
(dp474
g3
F42.6705452
sg4
F-95.1432068
ssS'Marion County, Alabama'
p475
(dp476
g3
F34.0441174
sg4
F-87.77633329999999
ssS'Atlantic County, New Jersey'
p477
(dp478
g3
F39.5333379
sg4
F-74.6868815
ssS'West Baton Rouge Parish, Louisiana'
p479
(dp480
g3
F30.4751202
sg4
F-91.3276422
ssS'Overton County, Tennessee'
p481
(dp482
g3
F36.3880346
sg4
F-85.31362179999999
ssS'Berkeley County, South Carolina'
p483
(dp484
g3
F33.1260618
sg4
F-80.0087746
ssS'Bedford County, Tennessee'
p485
(dp486
g3
F35.4702472
sg4
F-86.4592091
ssS'Wilson County, Texas'
p487
(dp488
g3
F29.2683783
sg4
F-98.04651849999999
ssS'Tyrrell County, North Carolina'
p489
(dp490
g3
F35.8925537
sg4
F-76.17837390000001
ssS'Hunterdon County, New Jersey'
p491
(dp492
g3
F40.56695149999999
sg4
F-74.92087719999999
ssS'Norton city, Virginia'
p493
(dp494
g3
F36.933433
sg4
F-82.6290459
ssS'Ross County, Ohio'
p495
(dp496
g3
F39.3584253
sg4
F-82.99316069999999
ssS'Newport County, Rhode Island'
p497
(dp498
g3
F41.5016969
sg4
F-71.2399037
ssS'Hamilton County, Nebraska'
p499
(dp500
g3
F40.919722
sg4
F-98.04651849999999
ssS'Cass County, Iowa'
p501
(dp502
g3
F41.2538068
sg4
F-94.976654
ssS'Stanton County, Nebraska'
p503
(dp504
g3
F41.9329995
sg4
F-97.179026
ssS'Crow Indian Reservation, Montana'
p505
(dp506
g3
F45.383294
sg4
F-107.8339962
ssS'Carroll County, Ohio'
p507
(dp508
g3
F40.5328331
sg4
F-81.0754657
ssS'Williamsburg city, Virginia'
p509
(dp510
g3
F37.2707022
sg4
F-76.7074571
ssS'Jeff Davis County, Georgia'
p511
(dp512
g3
F31.8234851
sg4
F-82.605118
ssS'Scott County, Minnesota'
p513
(dp514
g3
F44.6834072
sg4
F-93.54079089999999
ssS'Gonzales County, Texas'
p515
(dp516
g3
F29.4834878
sg4
F-97.5247243
ssS'Erie County, Ohio'
p517
(dp518
g3
F41.4349882
sg4
F-82.4752757
ssS'Washington County, North Carolina'
p519
(dp520
g3
F35.8120333
sg4
F-76.5950555
ssS'Shawano County, Wisconsin'
p521
(dp522
g3
F44.7683909
sg4
F-88.7108964
ssS'Irwin County, Georgia'
p523
(dp524
g3
F31.5893221
sg4
F-83.2934086
ssS'Keweenaw County, Michigan'
p525
(dp526
g3
F47.3400149
sg4
F-88.0490907
ssS'Telfair County, Georgia'
p527
(dp528
g3
F31.8907647
sg4
F-82.99316069999999
ssS'Miami-Dade County, Florida'
p529
(dp530
g3
F25.5516034
sg4
F-80.6326916
ssS'Cass County, Texas'
p531
(dp532
g3
F33.09443420000001
sg4
F-94.315422
ssS'Ochiltree County, Texas'
p533
(dp534
g3
F36.2921544
sg4
F-100.8000051
ssS'Madison Parish, Louisiana'
p535
(dp536
g3
F32.4401578
sg4
F-91.28910359999999
ssS'Hartford County, Connecticut'
p537
(dp538
g3
F41.7924343
sg4
F-72.8042797
ssS'Orange County, Indiana'
p539
(dp540
g3
F38.5169004
sg4
F-86.49965460000001
ssS'Bowie County, Texas'
p541
(dp542
g3
F33.4473287
sg4
F-94.479976
ssS'Orleans County, New York'
p543
(dp544
g3
F43.2524601
sg4
F-78.2308005
ssS'Wilson County, Tennessee'
p545
(dp546
g3
F36.1626241
sg4
F-86.2970998
ssS'Tift County, Georgia'
p547
(dp548
g3
F31.4205597
sg4
F-83.54965659999999
ssS'Pocahontas County, West Virginia'
p549
(dp550
g3
F38.3101706
sg4
F-80.0087746
ssS'Northampton County, Virginia'
p551
(dp552
g3
F37.226762
sg4
F-75.9927652
ssS'Greene County, New York'
p553
(dp554
g3
F42.2957321
sg4
F-74.12399599999999
ssS'LaPorte County, Indiana'
p555
(dp556
g3
F41.4775131
sg4
F-86.8220341
ssS'Northern Cheyenne Indian Reservation, Montana'
p557
(dp558
g3
F45.5333247
sg4
F-106.6339227
ssS'Sabine Parish, Louisiana'
p559
(dp560
g3
F31.4893252
sg4
F-93.5003454
ssS'Gloucester County, New Jersey'
p561
(dp562
g3
F39.7103023
sg4
F-75.1078332
ssS'Douglas County, Kansas'
p563
(dp564
g3
F38.9107835
sg4
F-95.26844369999999
ssS'Humphreys County, Mississippi'
p565
(dp566
g3
F33.1677834
sg4
F-90.52578229999999
ssS'Liberty County, Georgia'
p567
(dp568
g3
F31.842969
sg4
F-81.47183869999999
ssS'Humphreys County, Tennessee'
p569
(dp570
g3
F36.0245773
sg4
F-87.7369607
ssS'Warren County, Indiana'
p571
(dp572
g3
F40.319245
sg4
F-87.3413599
ssS'Amite County, Mississippi'
p573
(dp574
g3
F31.1683803
sg4
F-90.8294002
ssS'Custer County, South Dakota'
p575
(dp576
g3
F43.6784067
sg4
F-103.4511768
ssS'Walton County, Florida'
p577
(dp578
g3
F30.56401989999999
sg4
F-86.17517590000001
ssS'Madison County, Arkansas'
p579
(dp580
g3
F35.9466415
sg4
F-93.66232389999999
ssS'Galveston County, Texas'
p581
(dp582
g3
F29.37634989999999
sg4
F-94.8520636
ssS'Howard County, Nebraska'
p583
(dp584
g3
F41.20204349999999
sg4
F-98.5721016
ssS'Posey County, Indiana'
p585
(dp586
g3
F38.0020359
sg4
F-87.89424509999999
ssS'Sheridan County, Wyoming'
p587
(dp588
g3
F44.787904
sg4
F-106.925973
ssS'Sherman County, Texas'
p589
(dp590
g3
F36.2643429
sg4
F-101.9804613
ssS'Lincoln County, Tennessee'
p591
(dp592
g3
F35.1239397
sg4
F-86.6207943
ssS'Stoddard County, Missouri'
p593
(dp594
g3
F36.8680558
sg4
F-89.9253233
ssS'St. Joseph County, Indiana'
p595
(dp596
g3
F41.6228085
sg4
F-86.3376761
ssS'Callahan County, Texas'
p597
(dp598
g3
F32.2728116
sg4
F-99.456155
ssS'Nemaha County, Kansas'
p599
(dp600
g3
F39.7451077
sg4
F-95.9832577
ssS'Wheatland County, Montana'
p601
(dp602
g3
F46.4922893
sg4
F-109.8418592
ssS'Rosebud County, Montana'
p603
(dp604
g3
F46.3904836
sg4
F-106.5944313
ssS'Guadalupe County, New Mexico'
p605
(dp606
g3
F34.8235801
sg4
F-104.8454619
ssS'Poweshiek County, Iowa'
p607
(dp608
g3
F41.6530119
sg4
F-92.539603
ssS'Kewaunee County, Wisconsin'
p609
(dp610
g3
F44.5202599
sg4
F-87.38107269999999
ssS'Lake County, Michigan'
p611
(dp612
g3
F43.9446996
sg4
F-85.84862360000001
ssS'Madison County, Texas'
p613
(dp614
g3
F30.9888479
sg4
F-95.94097099999999
ssS'DeKalb County, Tennessee'
p615
(dp616
g3
F35.9728357
sg4
F-85.80766
ssS'Jo Daviess County, Illinois'
p617
(dp618
g3
F42.3148804
sg4
F-90.2244662
ssS'Fallon County, Montana'
p619
(dp620
g3
F46.3762402
sg4
F-104.4280327
ssS'Dodge County, Nebraska'
p621
(dp622
g3
F41.6472611
sg4
F-96.663812
ssS'Kiowa County, Oklahoma'
p623
(dp624
g3
F34.9742541
sg4
F-98.92453429999999
ssS'Essex County, New Jersey'
p625
(dp626
g3
F40.7947466
sg4
F-74.2648829
ssS'Cabell County, West Virginia'
p627
(dp628
g3
F38.43919270000001
sg4
F-82.25832969999999
ssS'Clay County, Illinois'
p629
(dp630
g3
F38.7279431
sg4
F-88.55653099999999
ssS'Nevada County, Arkansas'
p631
(dp632
g3
F33.6621386
sg4
F-93.33889169999999
ssS'Licking County, Ohio'
p633
(dp634
g3
F40.1460895
sg4
F-82.4752757
ssS'Wilbarger County, Texas'
p635
(dp636
g3
F34.0688089
sg4
F-99.2785583
ssS'Ionia County, Michigan'
p637
(dp638
g3
F42.9892119
sg4
F-85.02334599999999
ssS'Fillmore County, Nebraska'
p639
(dp640
g3
F40.47101190000001
sg4
F-97.5247243
ssS'Oneida County, Wisconsin'
p641
(dp642
g3
F45.6750801
sg4
F-89.4616564
ssS'Cecil County, Maryland'
p643
(dp644
g3
F39.5739403
sg4
F-75.94632399999999
ssS'Fayette County, Pennsylvania'
p645
(dp646
g3
F39.9272324
sg4
F-79.6502105
ssS'Talladega County, Alabama'
p647
(dp648
g3
F33.4231716
sg4
F-86.1344697
ssS'Transylvania County, North Carolina'
p649
(dp650
g3
F35.2190534
sg4
F-82.7778579
ssS'Bullock County, Alabama'
p651
(dp652
g3
F32.0573536
sg4
F-85.7256372
ssS'Dallas County, Iowa'
p653
(dp654
g3
F41.6120022
sg4
F-93.9878427
ssS'Cass County, Michigan'
p655
(dp656
g3
F41.9299158
sg4
F-86.0121573
ssS'Escambia County, Alabama'
p657
(dp658
g3
F31.1394734
sg4
F-87.14228949999999
ssS'Cottonwood County, Minnesota'
p659
(dp660
g3
F44.0488692
sg4
F-95.3102505
ssS'Pawnee County, Oklahoma'
p661
(dp662
g3
F36.2918339
sg4
F-96.7065914
ssS'Cumberland County, New Jersey'
p663
(dp664
g3
F39.2587106
sg4
F-75.06111469999999
ssS'Autauga County, Alabama'
p665
(dp666
g3
F32.5791817
sg4
F-86.49965460000001
ssS'Marion County, Ohio'
p667
(dp668
g3
F40.5518645
sg4
F-83.12200740000002
ssS'Litchfield County, Connecticut'
p669
(dp670
g3
F41.7866294
sg4
F-73.2765361
ssS'Brown County, Ohio'
p671
(dp672
g3
F38.9092089
sg4
F-83.8473015
ssS'Spotsylvania County, Virginia'
p673
(dp674
g3
F38.204165
sg4
F-77.6077865
ssS'Owen County, Indiana'
p675
(dp676
g3
F39.3603429
sg4
F-86.8220341
ssS'Blaine County, Idaho'
p677
(dp678
g3
F43.4743428
sg4
F-113.9664446
ssS'Eaton County, Michigan'
p679
(dp680
g3
F42.5886496
sg4
F-84.7733325
ssS'Waupaca County, Wisconsin'
p681
(dp682
g3
F44.4705941
sg4
F-89.0179332
ssS'Crane County, Texas'
p683
(dp684
g3
F31.4654966
sg4
F-102.5298028
ssS'Lafayette County, Mississippi'
p685
(dp686
g3
F34.4186994
sg4
F-89.4742177
ssS'Stanly County, North Carolina'
p687
(dp688
g3
F35.30145540000001
sg4
F-80.23213129999999
ssS'Bristol County, Massachusetts'
p689
(dp690
g3
F41.7938406
sg4
F-71.1448516
ssS'Berks County, Pennsylvania'
p691
(dp692
g3
F40.3451566
sg4
F-75.9927652
ssS'Saline County, Nebraska'
p693
(dp694
g3
F40.4930367
sg4
F-97.179026
ssS'Roanoke County, Virginia'
p695
(dp696
g3
F37.2467123
sg4
F-80.1205256
ssS'Mitchell County, Iowa'
p697
(dp698
g3
F43.37107020000001
sg4
F-92.8577105
ssS'Harnett County, North Carolina'
p699
(dp700
g3
F35.35786480000001
sg4
F-78.8835548
ssS'Franklin County, Georgia'
p701
(dp702
g3
F34.3645724
sg4
F-83.2077645
ssS'Washington County, Rhode Island'
p703
(dp704
g3
F41.45681130000001
sg4
F-71.6673352
ssS'Alleghany County, North Carolina'
p705
(dp706
g3
F36.4940839
sg4
F-81.1196075
ssS'Wise County, Texas'
p707
(dp708
g3
F33.2895861
sg4
F-97.69822719999999
ssS'Laramie County, Wyoming'
p709
(dp710
g3
F41.4269559
sg4
F-104.8454619
ssS'Granite County, Montana'
p711
(dp712
g3
F46.3374643
sg4
F-113.4647823
ssS'Baylor County, Texas'
p713
(dp714
g3
F33.5373926
sg4
F-99.2785583
ssS'Gaston County, North Carolina'
p715
(dp716
g3
F35.2895651
sg4
F-81.20781640000001
ssS'Knox County, Maine'
p717
(dp718
g3
F43.9969995
sg4
F-68.9242652
ssS'Mecklenburg County, North Carolina'
p719
(dp720
g3
F35.2632655
sg4
F-80.8543847
ssS'Linn County, Oregon'
p721
(dp722
g3
F44.4099768
sg4
F-122.53401
ssS'Vanderburgh County, Indiana'
p723
(dp724
g3
F38.0806099
sg4
F-87.5791287
ssS'Loving County, Texas'
p725
(dp726
g3
F31.8883434
sg4
F-103.6362715
ssS'Pike County, Arkansas'
p727
(dp728
g3
F34.1876975
sg4
F-93.66232389999999
ssS'Early County, Georgia'
p729
(dp730
g3
F31.3901106
sg4
F-84.8984775
ssS'Potter County, Texas'
p731
(dp732
g3
F35.404373
sg4
F-101.9804613
ssS'Forrest County, Mississippi'
p733
(dp734
g3
F31.2148677
sg4
F-89.28472510000002
ssS'Tuscola County, Michigan'
p735
(dp736
g3
F43.5301144
sg4
F-83.5070203
ssS'Caswell County, North Carolina'
p737
(dp738
g3
F36.3860217
sg4
F-79.29021329999999
ssS'Jefferson Parish, Louisiana'
p739
(dp740
g3
F29.6498691
sg4
F-90.11206960000001
ssS'Sierra County, New Mexico'
p741
(dp742
g3
F33.13459600000001
sg4
F-107.1011931
ssS'Vermillion County, Indiana'
p743
(dp744
g3
F39.8512139
sg4
F-87.48020679999999
ssS'Gordon County, Georgia'
p745
(dp746
g3
F34.4891699
sg4
F-84.8567932
ssS'Benzie County, Michigan'
p747
(dp748
g3
F44.6458455
sg4
F-86.03712639999999
ssS'Gilpin County, Colorado'
p749
(dp750
g3
F39.8770159
sg4
F-105.4536718
ssS'Arlington County, Virginia'
p751
(dp752
g3
F38.8816208
sg4
F-77.09098089999999
ssS'Iowa County, Iowa'
p753
(dp754
g3
F41.6624604
sg4
F-92.0665197
ssS'Douglas County, Illinois'
p755
(dp756
g3
F39.7617631
sg4
F-88.2071598
ssS'Oklahoma County, Oklahoma'
p757
(dp758
g3
F35.6038323
sg4
F-97.35165579999999
ssS'Albany County, New York'
p759
(dp760
g3
F42.57567969999999
sg4
F-73.93598209999999
ssS'Logan County, Illinois'
p761
(dp762
g3
F40.061338
sg4
F-89.3226954
ssS'Adams County, Wisconsin'
p763
(dp764
g3
F44.0196955
sg4
F-89.77553379999999
ssS'Person County, North Carolina'
p765
(dp766
g3
F36.3528221
sg4
F-78.9288242
ssS'Henry County, Iowa'
p767
(dp768
g3
F41.0283603
sg4
F-91.5983959
ssS'Levy County, Florida'
p769
(dp770
g3
F29.3178545
sg4
F-82.82097399999999
ssS'Rio Grande County, Colorado'
p771
(dp772
g3
F37.5749508
sg4
F-106.4405872
ssS'Collier County, Florida'
p773
(dp774
g3
F26.069985
sg4
F-81.42789839999999
ssS'Winn Parish, Louisiana'
p775
(dp776
g3
F31.91961239999999
sg4
F-92.6586401
ssS'Mohave County, Arizona'
p777
(dp778
g3
F35.2143346
sg4
F-113.7632828
ssS'Livingston County, New York'
p779
(dp780
g3
F42.7576923
sg4
F-77.8367282
ssS'Hinsdale County, Colorado'
p781
(dp782
g3
F37.9316309
sg4
F-107.3848831
ssS'Carroll County, New Hampshire'
p783
(dp784
g3
F43.8128209
sg4
F-71.25060669999999
ssS'Colfax County, New Mexico'
p785
(dp786
g3
F36.5799757
sg4
F-104.4723301
ssS'Independence County, Arkansas'
p787
(dp788
g3
F35.8174139
sg4
F-91.5983959
ssS'Kit Carson County, Colorado'
p789
(dp790
g3
F39.3844507
sg4
F-102.5298028
ssS'Colleton County, South Carolina'
p791
(dp792
g3
F32.8242297
sg4
F-80.7214417
ssS'Lee County, Illinois'
p793
(dp794
g3
F41.6789842
sg4
F-89.3226954
ssS'Noble County, Oklahoma'
p795
(dp796
g3
F36.4799034
sg4
F-97.179026
ssS'Hamilton County, Iowa'
p797
(dp798
g3
F42.4141275
sg4
F-93.66232389999999
ssS'Canyon County, Idaho'
p799
(dp800
g3
F43.67795810000001
sg4
F-116.6865435
ssS'Douglas County, Nevada'
p801
(dp802
g3
F38.9265035
sg4
F-119.6499162
ssS'Polk County, Florida'
p803
(dp804
g3
F27.8617347
sg4
F-81.6911559
ssS'Schuyler County, Illinois'
p805
(dp806
g3
F40.1844543
sg4
F-90.6393702
ssS'Culberson County, Texas'
p807
(dp808
g3
F31.347767
sg4
F-104.4723301
ssS'Monroe County, Tennessee'
p809
(dp810
g3
F35.471793
sg4
F-84.2278796
ssS'Giles County, Tennessee'
p811
(dp812
g3
F35.0894745
sg4
F-86.9824288
ssS'Fremont County, Iowa'
p813
(dp814
g3
F40.7400403
sg4
F-95.6457951
ssS'Appling County, Georgia'
p815
(dp816
g3
F31.712238
sg4
F-82.25832969999999
ssS'Moore County, Texas'
p817
(dp818
g3
F35.8446761
sg4
F-101.8891721
ssS'Presque Isle County, Michigan'
p819
(dp820
g3
F45.5729299
sg4
F-83.597821
ssS'St. Mary Parish, Louisiana'
p821
(dp822
g3
F29.502976
sg4
F-91.44346900000001
ssS'Stephens County, Georgia'
p823
(dp824
g3
F34.5458998
sg4
F-83.2934086
ssS'Green County, Wisconsin'
p825
(dp826
g3
F42.6287336
sg4
F-89.62516459999999
ssS'Audubon County, Iowa'
p827
(dp828
g3
F41.7326826
sg4
F-94.976654
ssS'Chesterfield County, Virginia'
p829
(dp830
g3
F37.3673217
sg4
F-77.6077865
ssS'Victoria County, Texas'
p831
(dp832
g3
F28.7712909
sg4
F-97.0068393
ssS'Cape Girardeau County, Missouri'
p833
(dp834
g3
F37.3821319
sg4
F-89.62516459999999
ssS'Putnam County, Illinois'
p835
(dp836
g3
F41.238474
sg4
F-89.28472510000002
ssS'Shannon County, South Dakota'
p837
(dp838
g3
F43.2437442
sg4
F-102.6216211
ssS'Crawford County, Pennsylvania'
p839
(dp840
g3
F41.6661391
sg4
F-80.2767327
ssS'Schoolcraft County, Michigan'
p841
(dp842
g3
F46.0693515
sg4
F-86.1903622
ssS'Lincoln Parish, Louisiana'
p843
(dp844
g3
F32.598888
sg4
F-92.6983868
ssS'Tillman County, Oklahoma'
p845
(dp846
g3
F34.4478348
sg4
F-98.92453429999999
ssS'Santa Barbara County, California'
p847
(dp848
g3
F34.4208321
sg4
F-119.6982057
ssS'Chambers County, Alabama'
p849
(dp850
g3
F32.9028048
sg4
F-85.35496499999999
ssS'Herkimer County, New York'
p851
(dp852
g3
F43.1630587
sg4
F-74.8741045
ssS'St. Martin Parish, Louisiana'
p853
(dp854
g3
F30.2395901
sg4
F-91.7538817
ssS'Charles County, Maryland'
p855
(dp856
g3
F38.5221781
sg4
F-77.10249019999999
ssS'Muskegon County, Michigan'
p857
(dp858
g3
F43.294941
sg4
F-86.1261055
ssS'Delaware County, New York'
p859
(dp860
g3
F42.2452081
sg4
F-74.8741045
ssS'Russell County, Alabama'
p861
(dp862
g3
F32.3552497
sg4
F-85.1894045
ssS'Shelby County, Ohio'
p863
(dp864
g3
F40.3689335
sg4
F-84.2278796
ssS'Fort Belknap Indian Reservation, Montana'
p865
(dp866
g3
F48.1999958
sg4
F-108.5340374
ssS'Morgan County, Ohio'
p867
(dp868
g3
F39.6521907
sg4
F-81.8224362
ssS'Crockett County, Texas'
p869
(dp870
g3
F30.5977955
sg4
F-101.1617356
ssS'Lemhi County, Idaho'
p871
(dp872
g3
F45.0364592
sg4
F-113.9230554
ssS'Henry County, Alabama'
p873
(dp874
g3
F31.4469377
sg4
F-85.1894045
ssS'Danville city, Virginia'
p875
(dp876
g3
F36.5859718
sg4
F-79.39502279999999
ssS'Richland County, Ohio'
p877
(dp878
g3
F40.7566723
sg4
F-82.5185837
ssS'Caldwell County, North Carolina'
p879
(dp880
g3
F35.9227448
sg4
F-81.5596427
ssS'Carter County, Montana'
p881
(dp882
g3
F45.4522431
sg4
F-104.3707837
ssS'Madison County, Virginia'
p883
(dp884
g3
F38.436934
sg4
F-78.24761459999999
ssS'Queens County, New York'
p885
(dp886
g3
F40.7282239
sg4
F-73.7948516
ssS'Johnson County, Indiana'
p887
(dp888
g3
F39.4637793
sg4
F-86.1344697
ssS'Monroe County, Indiana'
p889
(dp890
g3
F39.1851445
sg4
F-86.49965460000001
ssS'Jackson County, Indiana'
p891
(dp892
g3
F38.8794321
sg4
F-86.05296039999999
ssS'Johnson County, Arkansas'
p893
(dp894
g3
F35.6026275
sg4
F-93.5003454
ssS'Parmer County, Texas'
p895
(dp896
g3
F34.4604292
sg4
F-102.7135121
ssS'Ohio County, Kentucky'
p897
(dp898
g3
F37.5108523
sg4
F-86.8220341
ssS'Benewah County, Idaho'
p899
(dp900
g3
F47.2437836
sg4
F-116.6499425
ssS'Bolivar County, Mississippi'
p901
(dp902
g3
F33.8829962
sg4
F-90.8294002
ssS'Lincoln County, Idaho'
p903
(dp904
g3
F43.0496418
sg4
F-114.1694407
ssS'Taylor County, Wisconsin'
p905
(dp906
g3
F45.2231325
sg4
F-90.529916
ssS'Beauregard Parish, Louisiana'
p907
(dp908
g3
F30.7611484
sg4
F-93.33889169999999
ssS'Crawford County, Michigan'
p909
(dp910
g3
F44.6524316
sg4
F-84.68974949999999
ssS'Hamilton County, Texas'
p911
(dp912
g3
F31.6368668
sg4
F-98.2212979
ssS'Dearborn County, Indiana'
p913
(dp914
g3
F39.1713075
sg4
F-84.981754
ssS'Osage County, Oklahoma'
p915
(dp916
g3
F36.6189367
sg4
F-96.2375947
ssS'Cherokee County, Georgia'
p917
(dp918
g3
F34.2514526
sg4
F-84.4802606
ssS'Chickasaw County, Mississippi'
p919
(dp920
g3
F33.8818791
sg4
F-89.0179332
ssS'Swisher County, Texas'
p921
(dp922
g3
F34.5532757
sg4
F-101.7979613
ssS'Washington County, Nebraska'
p923
(dp924
g3
F41.5541889
sg4
F-96.19513200000002
ssS'Lipscomb County, Texas'
p925
(dp926
g3
F36.2464455
sg4
F-100.3497895
ssS'Haralson County, Georgia'
p927
(dp928
g3
F33.8021715
sg4
F-85.1900684
ssS'Boone County, Arkansas'
p929
(dp930
g3
F36.3118662
sg4
F-93.0175712
ssS'Tucker County, West Virginia'
p931
(dp932
g3
F39.1083806
sg4
F-79.6502105
ssS'Adair County, Iowa'
p933
(dp934
g3
F41.2741733
sg4
F-94.479976
ssS'Beckham County, Oklahoma'
p935
(dp936
g3
F35.2687266
sg4
F-99.634135
ssS'Ontario County, New York'
p937
(dp938
g3
F42.85098379999999
sg4
F-77.2864879
ssS'Pierce County, Georgia'
p939
(dp940
g3
F31.343806
sg4
F-82.1713632
ssS'Wapello County, Iowa'
p941
(dp942
g3
F41.0148894
sg4
F-92.38136209999999
ssS'Houston County, Texas'
p943
(dp944
g3
F31.2377559
sg4
F-95.4777811
ssS'Sedgwick County, Colorado'
p945
(dp946
g3
F40.8568843
sg4
F-102.3463875
ssS'Ottawa County, Michigan'
p947
(dp948
g3
F42.95302299999999
sg4
F-86.0937312
ssS'Barry County, Michigan'
p949
(dp950
g3
F42.5354321
sg4
F-85.35496499999999
ssS'Duval County, Texas'
p951
(dp952
g3
F27.7525271
sg4
F-98.5721016
ssS'Franklin County, Texas'
p953
(dp954
g3
F33.1959954
sg4
F-95.18492189999999
ssS'Somervell County, Texas'
p955
(dp956
g3
F32.2547696
sg4
F-97.7416703
ssS'Johnson County, Tennessee'
p957
(dp958
g3
F36.4585672
sg4
F-81.8224362
ssS'Hawkins County, Tennessee'
p959
(dp960
g3
F36.4445545
sg4
F-82.95015579999999
ssS'Pope County, Arkansas'
p961
(dp962
g3
F35.440627
sg4
F-93.0175712
ssS'Jay County, Indiana'
p963
(dp964
g3
F40.4465288
sg4
F-85.02334599999999
ssS'Little River County, Arkansas'
p965
(dp966
g3
F33.6808926
sg4
F-94.19234000000002
ssS'Bladen County, North Carolina'
p967
(dp968
g3
F34.5882404
sg4
F-78.5660852
ssS'San Miguel County, Colorado'
p969
(dp970
g3
F37.9781237
sg4
F-108.1428669
ssS'Park County, Montana'
p971
(dp972
g3
F45.4788485
sg4
F-110.6082522
ssS'Linn County, Iowa'
p973
(dp974
g3
F42.0659844
sg4
F-91.67606909999999
ssS'Josephine County, Oregon'
p975
(dp976
g3
F42.3447572
sg4
F-123.4568737
ssS'Murray County, Oklahoma'
p977
(dp978
g3
F34.4383273
sg4
F-97.0498442
ssS'Rutherford County, North Carolina'
p979
(dp980
g3
F35.4258737
sg4
F-81.909826
ssS'Cumberland County, Virginia'
p981
(dp982
g3
F37.5175385
sg4
F-78.24761459999999
ssS'Cumberland County, Illinois'
p983
(dp984
g3
F39.2653533
sg4
F-88.2071598
ssS'Parker County, Texas'
p985
(dp986
g3
F32.7415519
sg4
F-97.87216
ssS'Houston County, Georgia'
p987
(dp988
g3
F32.4219655
sg4
F-83.63484299999999
ssS'Howard County, Maryland'
p989
(dp990
g3
F39.2873463
sg4
F-76.964306
ssS'Houghton County, Michigan'
p991
(dp992
g3
F47.1211215
sg4
F-88.5694012
ssS'Vernon County, Wisconsin'
p993
(dp994
g3
F43.5576968
sg4
F-90.8294002
ssS'Niihau CCD, Hawaii'
p995
(dp996
g3
Nsg4
NssS'La Salle Parish, Louisiana'
p997
(dp998
g3
F31.7002461
sg4
F-92.2236667
ssS'Washita County, Oklahoma'
p999
(dp1000
g3
F35.3234027
sg4
F-98.92453429999999
ssS'Sequatchie County, Tennessee'
p1001
(dp1002
g3
F35.3469428
sg4
F-85.39627689999999
ssS'Montgomery County, Texas'
p1003
(dp1004
g3
F30.3213482
sg4
F-95.4777811
ssS'Oscoda County, Michigan'
p1005
(dp1006
g3
F44.6278903
sg4
F-84.1857115
ssS'Gilmer County, Georgia'
p1007
(dp1008
g3
F34.6935359
sg4
F-84.4802606
ssS'Gallatin County, Montana'
p1009
(dp1010
g3
F45.5388865
sg4
F-111.1194231
ssS'Martin County, Florida'
p1011
(dp1012
g3
F27.0804935
sg4
F-80.4103957
ssS'Mercer County, Illinois'
p1013
(dp1014
g3
F41.1985037
sg4
F-90.6773046
ssS'Scott County, Virginia'
p1015
(dp1016
g3
F36.6815794
sg4
F-82.605118
ssS'Ouachita County, Arkansas'
p1017
(dp1018
g3
F33.5828512
sg4
F-92.9375739
ssS'Randolph County, Georgia'
p1019
(dp1020
g3
F31.7913398
sg4
F-84.68974949999999
ssS'Loudon County, Tennessee'
p1021
(dp1022
g3
F35.7374411
sg4
F-84.3121264
ssS'Gunnison County, Colorado'
p1023
(dp1024
g3
F38.6437083
sg4
F-107.0067031
ssS'Grimes County, Texas'
p1025
(dp1026
g3
F30.4829853
sg4
F-95.9832577
ssS'Skamania County, Washington'
p1027
(dp1028
g3
F45.9428524
sg4
F-121.8962257
ssS'Sevier County, Tennessee'
p1029
(dp1030
g3
F35.8271682
sg4
F-83.5070203
ssS'Steuben County, New York'
p1031
(dp1032
g3
F42.321027
sg4
F-77.3783789
ssS'Cameron Parish, Louisiana'
p1033
(dp1034
g3
F29.8434436
sg4
F-93.17796589999999
ssS'Lincoln County, Missouri'
p1035
(dp1036
g3
F39.0669568
sg4
F-90.9820668
ssS'Calhoun County, Mississippi'
p1037
(dp1038
g3
F33.8839218
sg4
F-89.3226954
ssS'Edwards County, Illinois'
p1039
(dp1040
g3
F38.4267827
sg4
F-88.050979
ssS'Sebastian County, Arkansas'
p1041
(dp1042
g3
F35.2260397
sg4
F-94.315422
ssS'Wayne County, Pennsylvania'
p1043
(dp1044
g3
F41.67388649999999
sg4
F-75.2479061
ssS'Lanier County, Georgia'
p1045
(dp1046
g3
F31.02912689999999
sg4
F-83.03613759999999
ssS'Erath County, Texas'
p1047
(dp1048
g3
F32.17934040000001
sg4
F-98.2212979
ssS'Vilas County, Wisconsin'
p1049
(dp1050
g3
F45.9787939
sg4
F-89.45591619999999
ssS'Washington County, Colorado'
p1051
(dp1052
g3
F40.063745
sg4
F-102.989615
ssS'Shelby County, Tennessee'
p1053
(dp1054
g3
F35.1268552
sg4
F-89.9253233
ssS'Sharp County, Arkansas'
p1055
(dp1056
g3
F36.16759740000001
sg4
F-91.44346900000001
ssS'Valencia County, New Mexico'
p1057
(dp1058
g3
F34.6743674
sg4
F-106.6291304
ssS'Lauderdale County, Mississippi'
p1059
(dp1060
g3
F32.4401578
sg4
F-88.7108964
ssS'Racine County, Wisconsin'
p1061
(dp1062
g3
F42.727213
sg4
F-88.0326922
ssS'Houston County, Tennessee'
p1063
(dp1064
g3
F36.283619
sg4
F-87.658113
ssS'Brown County, Indiana'
p1065
(dp1066
g3
F39.1749729
sg4
F-86.17517590000001
ssS'Karnes County, Texas'
p1067
(dp1068
g3
F28.9089085
sg4
F-97.87216
ssS'Colonial Heights city, Virginia'
p1069
(dp1070
g3
F37.244039
sg4
F-77.4102607
ssS'Marshall County, Indiana'
p1071
(dp1072
g3
F41.303028
sg4
F-86.3376761
ssS'Swain County, North Carolina'
p1073
(dp1074
g3
F35.4328955
sg4
F-83.46435509999999
ssS'Sharkey County, Mississippi'
p1075
(dp1076
g3
F32.9860902
sg4
F-90.8294002
ssS'Doniphan County, Kansas'
p1077
(dp1078
g3
F39.8245628
sg4
F-95.18492189999999
ssS'Alachua County, Florida'
p1079
(dp1080
g3
F29.6579549
sg4
F-82.3017728
ssS'Leelanau County, Michigan'
p1081
(dp1082
g3
F45.0821226
sg4
F-86.07336339999999
ssS'Austin County, Texas'
p1083
(dp1084
g3
F29.8711291
sg4
F-96.2800864
ssS'De Witt County, Illinois'
p1085
(dp1086
g3
F40.1810363
sg4
F-88.90306
ssS'Heard County, Georgia'
p1087
(dp1088
g3
F33.2990406
sg4
F-85.14793639999999
ssS'Winnebago County, Illinois'
p1089
(dp1090
g3
F42.3121109
sg4
F-89.1705998
ssS'Niagara County, New York'
p1091
(dp1092
g3
F43.3119496
sg4
F-78.74762079999999
ssS'Albany County, Wyoming'
p1093
(dp1094
g3
F41.638448
sg4
F-105.5943388
ssS'White County, Indiana'
p1095
(dp1096
g3
F40.6765551
sg4
F-86.9824288
ssS'Ohio County, Indiana'
p1097
(dp1098
g3
F38.9417259
sg4
F-84.9609464
ssS'Pittsylvania County, Virginia'
p1099
(dp1100
g3
F36.7440186
sg4
F-79.4703885
ssS'Randolph County, Alabama'
p1101
(dp1102
g3
F33.2681523
sg4
F-85.52002399999999
ssS'Washington County, Illinois'
p1103
(dp1104
g3
F38.3988869
sg4
F-89.3226954
ssS'Clarke County, Alabama'
p1105
(dp1106
g3
F31.7002461
sg4
F-87.77633329999999
ssS'Carroll County, Illinois'
p1107
(dp1108
g3
F42.0385843
sg4
F-89.9626799
ssS'La Crosse County, Wisconsin'
p1109
(dp1110
g3
F43.8617023
sg4
F-91.13530200000001
ssS'Blount County, Alabama'
p1111
(dp1112
g3
F34.0145152
sg4
F-86.49965460000001
ssS'Silver Bow County, Montana'
p1113
(dp1114
g3
F45.8804293
sg4
F-112.5843056
ssS'Houston County, Alabama'
p1115
(dp1116
g3
F31.1318686
sg4
F-85.31362179999999
ssS'Potter County, Pennsylvania'
p1117
(dp1118
g3
F41.6682559
sg4
F-77.8367282
ssS'Roosevelt County, New Mexico'
p1119
(dp1120
g3
F33.9538388
sg4
F-103.3587288
ssS'Warren County, Ohio'
p1121
(dp1122
g3
F39.4241422
sg4
F-84.1857115
ssS'Meade County, Kentucky'
p1123
(dp1124
g3
F37.9601502
sg4
F-86.21584969999999
ssS'Leavenworth County, Kansas'
p1125
(dp1126
g3
F39.1713075
sg4
F-95.01824599999999
ssS'Major County, Oklahoma'
p1127
(dp1128
g3
F36.3479671
sg4
F-98.5281613
ssS'Mineral County, Colorado'
p1129
(dp1130
g3
F37.6583677
sg4
F-107.0067031
ssS'Davidson County, North Carolina'
p1131
(dp1132
g3
F35.7748479
sg4
F-80.1875065
ssS'Henry County, Tennessee'
p1133
(dp1134
g3
F36.3369938
sg4
F-88.24611829999999
ssS'Ashley County, Arkansas'
p1135
(dp1136
g3
F33.1565939
sg4
F-91.7538817
ssS'Hansford County, Texas'
p1137
(dp1138
g3
F36.31837489999999
sg4
F-101.4339148
ssS'Carteret County, North Carolina'
p1139
(dp1140
g3
F34.9019263
sg4
F-76.5488232
ssS'Lee County, North Carolina'
p1141
(dp1142
g3
F35.4693744
sg4
F-79.1548533
ssS'McKenzie County, North Dakota'
p1143
(dp1144
g3
F47.7714179
sg4
F-103.4122495
ssS'Cleveland County, Oklahoma'
p1145
(dp1146
g3
F35.254964
sg4
F-97.35165579999999
ssS'Escambia County, Florida'
p1147
(dp1148
g3
F30.6389408
sg4
F-87.3413599
ssS'Sacramento County, California'
p1149
(dp1150
g3
F38.47467
sg4
F-121.3541631
ssS'Menominee County, Michigan'
p1151
(dp1152
g3
F45.4995277
sg4
F-87.5746277
ssS'Franklin County, Arkansas'
p1153
(dp1154
g3
F35.5927966
sg4
F-93.8248241
ssS'Larimer County, Colorado'
p1155
(dp1156
g3
F40.6955572
sg4
F-105.5943388
ssS'Snyder County, Pennsylvania'
p1157
(dp1158
g3
F40.750748
sg4
F-77.0564464
ssS'Aransas County, Texas'
p1159
(dp1160
g3
F28.0761262
sg4
F-96.9638624
ssS'Lee County, Alabama'
p1161
(dp1162
g3
F32.5888702
sg4
F-85.39627689999999
ssS'Carson County, Texas'
p1163
(dp1164
g3
F35.4578717
sg4
F-101.4339148
ssS'Matanuska-Susitna Borough, Alaska'
p1165
(dp1166
g3
F62.2599347
sg4
F-150.1729153
ssS'Blackford County, Indiana'
p1167
(dp1168
g3
F40.49927840000001
sg4
F-85.31362179999999
ssS'Augusta County, Virginia'
p1169
(dp1170
g3
F38.2004562
sg4
F-79.24511489999999
ssS'Pontotoc County, Mississippi'
p1171
(dp1172
g3
F34.2382446
sg4
F-89.0179332
ssS"St. Mary's County, Maryland"
p1173
(dp1174
g3
F38.1060259
sg4
F-76.3637285
ssS'Kingman County, Kansas'
p1175
(dp1176
g3
F37.6071593
sg4
F-98.2212979
ssS'Teton County, Idaho'
p1177
(dp1178
g3
F43.7845793
sg4
F-111.1917625
ssS'Oneida County, Idaho'
p1179
(dp1180
g3
F42.2059769
sg4
F-112.5245093
ssS'Valdez-Cordova Census Area, Alaska'
p1181
(dp1182
g3
F61.4787707
sg4
F-144.1147196
ssS'Meigs County, Tennessee'
p1183
(dp1184
g3
F35.519359
sg4
F-84.79420909999999
ssS'St. Louis, Missouri'
p1185
(dp1186
g3
F38.6270025
sg4
F-90.19940419999999
ssS'Halifax County, North Carolina'
p1187
(dp1188
g3
F36.2646764
sg4
F-77.6077865
ssS'Hoke County, North Carolina'
p1189
(dp1190
g3
F35.0432488
sg4
F-79.24511489999999
ssS'Pope County, Illinois'
p1191
(dp1192
g3
F37.417132
sg4
F-88.59517509999999
ssS'Mitchell County, Texas'
p1193
(dp1194
g3
F32.3360516
sg4
F-100.8903099
ssS'Graham County, North Carolina'
p1195
(dp1196
g3
F35.3634623
sg4
F-83.804868
ssS'Jefferson County, Wisconsin'
p1197
(dp1198
g3
F43.089927
sg4
F-88.7108964
ssS'Berrien County, Michigan'
p1199
(dp1200
g3
F42.0320742
sg4
F-86.7416374
ssS'New Madrid County, Missouri'
p1201
(dp1202
g3
F36.5227538
sg4
F-89.77553379999999
ssS'Erie County, Pennsylvania'
p1203
(dp1204
g3
F42.0521954
sg4
F-80.1875065
ssS'Flathead County, Montana'
p1205
(dp1206
g3
F48.424152
sg4
F-114.15315
ssS'Carroll County, Arkansas'
p1207
(dp1208
g3
F36.2987495
sg4
F-93.5003454
ssS'Winnebago County, Wisconsin'
p1209
(dp1210
g3
F44.0126679
sg4
F-88.7108964
ssS'Mason County, Michigan'
p1211
(dp1212
g3
F43.9664537
sg4
F-86.49965460000001
ssS'Monroe County, Georgia'
p1213
(dp1214
g3
F32.9746846
sg4
F-83.8897057
ssS'Pike County, Alabama'
p1215
(dp1216
g3
F31.8395163
sg4
F-86.0121573
ssS'Custer County, Oklahoma'
p1217
(dp1218
g3
F35.6710818
sg4
F-98.92453429999999
ssS'San Luis Obispo County, California'
p1219
(dp1220
g3
F35.3102296
sg4
F-120.4357631
ssS'Warren County, Virginia'
p1221
(dp1222
g3
F38.9331749
sg4
F-78.24761459999999
ssS'Clare County, Michigan'
p1223
(dp1224
g3
F44.0565054
sg4
F-84.8567932
ssS'Scott County, Missouri'
p1225
(dp1226
g3
F37.0394443
sg4
F-89.62516459999999
ssS'Fannin County, Texas'
p1227
(dp1228
g3
F33.5544296
sg4
F-96.15269850000001
ssS'Champaign County, Illinois'
p1229
(dp1230
g3
F40.2138865
sg4
F-88.24611829999999
ssS'Whatcom County, Washington'
p1231
(dp1232
g3
F48.8787167
sg4
F-121.9718657
ssS'Onslow County, North Carolina'
p1233
(dp1234
g3
F34.6540094
sg4
F-77.4701972
ssS'Southern Ute Indian Reservation, Colorado'
p1235
(dp1236
g3
F37.1076816
sg4
F-107.6439677
ssS'Jackson County, Missouri'
p1237
(dp1238
g3
F38.9914998
sg4
F-94.315422
ssS'Newton County, Georgia'
p1239
(dp1240
g3
F33.5544296
sg4
F-83.8473015
ssS'Shoshone County, Idaho'
p1241
(dp1242
g3
F47.1746948
sg4
F-115.9104676
ssS'San Jacinto County, Texas'
p1243
(dp1244
g3
F30.5187687
sg4
F-95.1432068
ssS'Sandoval County, New Mexico'
p1245
(dp1246
g3
F35.6020667
sg4
F-106.7234639
ssS'Plumas County, California'
p1247
(dp1248
g3
F39.99268319999999
sg4
F-120.8039474
ssS'Boise County, Idaho'
p1249
(dp1250
g3
F43.9604787
sg4
F-115.8563106
ssS'Lake County, California'
p1251
(dp1252
g3
F39.08396440000001
sg4
F-122.8084496
ssS'Grant County, New Mexico'
p1253
(dp1254
g3
F32.9690805
sg4
F-108.2377519
ssS'Canadian County, Oklahoma'
p1255
(dp1256
g3
F35.5593784
sg4
F-98.04651849999999
ssS'Iron County, Wisconsin'
p1257
(dp1258
g3
F46.2855114
sg4
F-90.2347734
ssS'Montgomery County, Iowa'
p1259
(dp1260
g3
F41.0438839
sg4
F-95.18492189999999
ssS'Cavalier County, North Dakota'
p1261
(dp1262
g3
F48.8103752
sg4
F-98.47811060000001
ssS'Miami County, Indiana'
p1263
(dp1264
g3
F40.77009899999999
sg4
F-86.05296039999999
ssS'Morgan County, Alabama'
p1265
(dp1266
g3
F34.4240875
sg4
F-86.86218269999999
ssS'Foard County, Texas'
p1267
(dp1268
g3
F33.9865825
sg4
F-99.7678687
ssS'Anderson County, Kentucky'
p1269
(dp1270
g3
F37.998648
sg4
F-84.981754
ssS'San Patricio County, Texas'
p1271
(dp1272
g3
F27.9999695
sg4
F-97.5247243
ssS'Botetourt County, Virginia'
p1273
(dp1274
g3
F37.5774613
sg4
F-79.7848422
ssS'Carroll County, Indiana'
p1275
(dp1276
g3
F40.542415
sg4
F-86.5400674
ssS'Freestone County, Texas'
p1277
(dp1278
g3
F31.7534889
sg4
F-96.15269850000001
ssS'Allegany County, Maryland'
p1279
(dp1280
g3
F39.6255251
sg4
F-78.6114999
ssS'Androscoggin County, Maine'
p1281
(dp1282
g3
F44.19124160000001
sg4
F-70.17070369999999
ssS'Sullivan County, Tennessee'
p1283
(dp1284
g3
F36.4933147
sg4
F-82.34518899999999
ssS'Walker County, Alabama'
p1285
(dp1286
g3
F33.8563605
sg4
F-87.30161319999999
ssS'Denver County, Colorado'
p1287
(dp1288
g3
F39.76161889999999
sg4
F-104.9622498
ssS'Fayette County, Ohio'
p1289
(dp1290
g3
F39.5919809
sg4
F-83.46435509999999
ssS'Macon County, Tennessee'
p1291
(dp1292
g3
F36.4983882
sg4
F-85.971322
ssS'Edmonson County, Kentucky'
p1293
(dp1294
g3
F37.1941682
sg4
F-86.21584969999999
ssS'Logan County, West Virginia'
p1295
(dp1296
g3
F37.7883016
sg4
F-81.9534815
ssS'Macon County, Illinois'
p1297
(dp1298
g3
F39.8949055
sg4
F-89.0179332
ssS'Calhoun County, Iowa'
p1299
(dp1300
g3
F42.3785903
sg4
F-94.645035
ssS'Socorro County, New Mexico'
p1301
(dp1302
g3
F33.8837087
sg4
F-106.7234639
ssS'Kalawao County, Hawaii'
p1303
(dp1304
g3
F21.1724765
sg4
F-156.955318
ssS'Dallas County, Texas'
p1305
(dp1306
g3
F32.8024682
sg4
F-96.83509989999999
ssS'Adams County, Pennsylvania'
p1307
(dp1308
g3
F39.8522417
sg4
F-77.2864879
ssS'Pender County, North Carolina'
p1309
(dp1310
g3
F34.5170729
sg4
F-77.8367282
ssS'Edgar County, Illinois'
p1311
(dp1312
g3
F39.71312229999999
sg4
F-87.77633329999999
ssS'Irion County, Texas'
p1313
(dp1314
g3
F31.2557696
sg4
F-100.8903099
ssS'Valley County, Idaho'
p1315
(dp1316
g3
F44.9204669
sg4
F-115.7926381
ssS'Chippewa County, Michigan'
p1317
(dp1318
g3
F46.3117082
sg4
F-84.59320939999999
ssS'Lee County, Georgia'
p1319
(dp1320
g3
F31.8128435
sg4
F-84.14351359999999
ssS'Washington County, Minnesota'
p1321
(dp1322
g3
F44.8896877
sg4
F-92.8577105
ssS'Jefferson County, Indiana'
p1323
(dp1324
g3
F38.7751543
sg4
F-85.47880649999999
ssS'Okeechobee County, Florida'
p1325
(dp1326
g3
F27.3462015
sg4
F-80.89865019999999
ssS'Bergen County, New Jersey'
p1327
(dp1328
g3
F40.9262762
sg4
F-74.07701
ssS'Woodson County, Kansas'
p1329
(dp1330
g3
F37.9197853
sg4
F-95.81428849999999
ssS'Washington County, Florida'
p1331
(dp1332
g3
F30.548737
sg4
F-85.684578
ssS'Cameron County, Texas'
p1333
(dp1334
g3
F26.1284971
sg4
F-97.5247243
ssS'Hanover County, Virginia'
p1335
(dp1336
g3
F37.7772071
sg4
F-77.5160788
ssS'Plymouth County, Iowa'
p1337
(dp1338
g3
F42.776665
sg4
F-96.15269850000001
ssS'Lincoln County, Maine'
p1339
(dp1340
g3
F44.108282
sg4
F-69.511031
ssS'Conway County, Arkansas'
p1341
(dp1342
g3
F35.2727492
sg4
F-92.6983868
ssS'Lake County, Illinois'
p1343
(dp1344
g3
F42.3689363
sg4
F-87.8271534
ssS'Louisa County, Iowa'
p1345
(dp1346
g3
F41.19330009999999
sg4
F-91.28910359999999
ssS'Yukon Flats Regional Educational Attendance Area, Alaska'
p1347
(dp1348
g3
Nsg4
NssS'Butte County, Idaho'
p1349
(dp1350
g3
F43.6448198
sg4
F-113.1841378
ssS'San Juan County, Washington'
p1351
(dp1352
g3
F48.61180350000001
sg4
F-122.9602621
ssS'Marion County, Oregon'
p1353
(dp1354
g3
F44.8446393
sg4
F-122.5927411
ssS'Noble County, Ohio'
p1355
(dp1356
g3
F39.7465639
sg4
F-81.42789839999999
ssS'Calhoun County, Michigan'
p1357
(dp1358
g3
F42.2073905
sg4
F-85.02334599999999
ssS'Brazoria County, Texas'
p1359
(dp1360
g3
F29.2131857
sg4
F-95.4777811
ssS'Tattnall County, Georgia'
p1361
(dp1362
g3
F32.0634576
sg4
F-82.08429009999999
ssS'Simpson County, Kentucky'
p1363
(dp1364
g3
F36.7772014
sg4
F-86.6207943
ssS'Camas County, Idaho'
p1365
(dp1366
g3
F43.5093688
sg4
F-114.8243665
ssS'Bremer County, Iowa'
p1367
(dp1368
g3
F42.76108199999999
sg4
F-92.38136209999999
ssS'Cottle County, Texas'
p1369
(dp1370
g3
F34.159117
sg4
F-100.3497895
ssS'Decatur County, Iowa'
p1371
(dp1372
g3
F40.8146492
sg4
F-93.8248241
ssS'Greenbrier County, West Virginia'
p1373
(dp1374
g3
F38.0198478
sg4
F-80.54384499999999
ssS'Worth County, Georgia'
p1375
(dp1376
g3
F31.5282489
sg4
F-83.8897057
ssS'Raleigh County, West Virginia'
p1377
(dp1378
g3
F37.7381597
sg4
F-81.2518833
ssS'Bertie County, North Carolina'
p1379
(dp1380
g3
F36.0245185
sg4
F-76.964306
ssS'Boyle County, Kentucky'
p1381
(dp1382
g3
F37.6526034
sg4
F-84.8150781
ssS'Mitchell County, Kansas'
p1383
(dp1384
g3
F39.443669
sg4
F-98.2212979
ssS'Hamilton County, Indiana'
p1385
(dp1386
g3
F40.0372797
sg4
F-86.05296039999999
ssS'El Dorado County, California'
p1387
(dp1388
g3
F38.74263759999999
sg4
F-120.4357631
ssS'Holmes County, Mississippi'
p1389
(dp1390
g3
F33.16886600000001
sg4
F-90.0746767
ssS'Dolores County, Colorado'
p1391
(dp1392
g3
F37.7530272
sg4
F-108.5225709
ssS'Gulf County, Florida'
p1393
(dp1394
g3
F29.8001623
sg4
F-85.35496499999999
ssS'Ballard County, Kentucky'
p1395
(dp1396
g3
F37.0359869
sg4
F-89.0179332
ssS'Texas County, Missouri'
p1397
(dp1398
g3
F37.3673645
sg4
F-91.9099238
ssS'Montgomery County, Tennessee'
p1399
(dp1400
g3
F36.4960406
sg4
F-87.460397
ssS'Lauderdale County, Tennessee'
p1401
(dp1402
g3
F35.7838834
sg4
F-89.6628111
ssS'Habersham County, Georgia'
p1403
(dp1404
g3
F34.6478893
sg4
F-83.54965659999999
ssS'Payne County, Oklahoma'
p1405
(dp1406
g3
F36.1449988
sg4
F-97.0068393
ssS'Benton County, Iowa'
p1407
(dp1408
g3
F42.1387249
sg4
F-92.0665197
ssS'Polk County, Iowa'
p1409
(dp1410
g3
F41.6278423
sg4
F-93.5003454
ssS'Whitley County, Kentucky'
p1411
(dp1412
g3
F36.726335
sg4
F-84.1857115
ssS'Clarke County, Georgia'
p1413
(dp1414
g3
F33.9519347
sg4
F-83.357567
ssS'Amherst County, Virginia'
p1415
(dp1416
g3
F37.5588285
sg4
F-79.1096901
ssS'Newton County, Texas'
p1417
(dp1418
g3
F30.9359604
sg4
F-93.66232389999999
ssS'Pickaway County, Ohio'
p1419
(dp1420
g3
F39.687828
sg4
F-82.99316069999999
ssS'Franklin County, Kentucky'
p1421
(dp1422
g3
F38.2481018
sg4
F-84.8984775
ssS'Allegan County, Michigan'
p1423
(dp1424
g3
F42.5938744
sg4
F-85.9084434
ssS'Garfield County, Oklahoma'
p1425
(dp1426
g3
F36.4361392
sg4
F-97.87216
ssS'Alexander County, North Carolina'
p1427
(dp1428
g3
F35.8974199
sg4
F-81.20781640000001
ssS'Tioga County, Pennsylvania'
p1429
(dp1430
g3
F41.76494659999999
sg4
F-77.2864879
ssS'San Mateo County, California'
p1431
(dp1432
g3
F37.4337342
sg4
F-122.4014193
ssS'Vance County, North Carolina'
p1433
(dp1434
g3
F36.3479057
sg4
F-78.4297187
ssS'Finney County, Kansas'
p1435
(dp1436
g3
F38.0625252
sg4
F-100.8903099
ssS'Meigs County, Ohio'
p1437
(dp1438
g3
F39.0874307
sg4
F-81.9971108
ssS'Pulaski County, Arkansas'
p1439
(dp1440
g3
F34.75386150000001
sg4
F-92.2236667
ssS'Harrison County, Texas'
p1441
(dp1442
g3
F32.5539228
sg4
F-94.315422
ssS'Northampton County, Pennsylvania'
p1443
(dp1444
g3
F40.7749283
sg4
F-75.294569
ssS'Franklin County, Massachusetts'
p1445
(dp1446
g3
F42.530599
sg4
F-72.61511689999999
ssS'Young County, Texas'
p1447
(dp1448
g3
F33.2200087
sg4
F-98.7481167
ssS'Charleston County, South Carolina'
p1449
(dp1450
g3
F32.7956561
sg4
F-79.7848422
ssS'Lawrence County, Tennessee'
p1451
(dp1452
g3
F35.2761735
sg4
F-87.460397
ssS'Chippewa County, Wisconsin'
p1453
(dp1454
g3
F45.0673752
sg4
F-91.2924666
ssS'Sevier County, Arkansas'
p1455
(dp1456
g3
F34.0346222
sg4
F-94.27436279999999
ssS'Knox County, Indiana'
p1457
(dp1458
g3
F38.6665815
sg4
F-87.42075179999999
ssS'Deschutes County, Oregon'
p1459
(dp1460
g3
F43.83251
sg4
F-121.2616541
ssS'Webb County, Texas'
p1461
(dp1462
g3
F27.8174487
sg4
F-99.0128926
ssS'Coconino County, Arizona'
p1463
(dp1464
g3
F35.6647545
sg4
F-111.4752851
ssS'Trousdale County, Tennessee'
p1465
(dp1466
g3
F36.396385
sg4
F-86.15482689999999
ssS'Buchanan County, Virginia'
p1467
(dp1468
g3
F37.2403134
sg4
F-81.9971108
ssS'Clinton County, Ohio'
p1469
(dp1470
g3
F39.4067432
sg4
F-83.8473015
ssS'Tehama County, California'
p1471
(dp1472
g3
F40.0982197
sg4
F-122.174605
ssS'Rockland County, New York'
p1473
(dp1474
g3
F41.1489458
sg4
F-73.98300290000002
ssS'Woodruff County, Arkansas'
p1475
(dp1476
g3
F35.1215846
sg4
F-91.13530200000001
ssS'Holmes County, Florida'
p1477
(dp1478
g3
F30.8740806
sg4
F-85.80766
ssS'Big Horn County, Montana'
p1479
(dp1480
g3
F45.3496574
sg4
F-107.2715769
ssS'Putnam County, Georgia'
p1481
(dp1482
g3
F33.3069978
sg4
F-83.3789389
ssS'Blount County, Tennessee'
p1483
(dp1484
g3
F35.6710541
sg4
F-83.8473015
ssS'Logan County, Ohio'
p1485
(dp1486
g3
F40.38996789999999
sg4
F-83.8473015
ssS'Dona Ana County, New Mexico'
p1487
(dp1488
g3
F32.485767
sg4
F-106.7234639
ssS'Jackson Parish, Louisiana'
p1489
(dp1490
g3
F32.2399791
sg4
F-92.539603
ssS'Decatur County, Indiana'
p1491
(dp1492
g3
F39.3176186
sg4
F-85.52002399999999
ssS'Franklin County, Idaho'
p1493
(dp1494
g3
F42.2100342
sg4
F-111.7614661
ssS'Falls Church city, Virginia'
p1495
(dp1496
g3
F38.88233400000001
sg4
F-77.1710914
ssS'Howard County, Indiana'
p1497
(dp1498
g3
F40.4482767
sg4
F-86.1344697
ssS'Chicot County, Arkansas'
p1499
(dp1500
g3
F33.3419551
sg4
F-91.28910359999999
ssS'Hancock County, Georgia'
p1501
(dp1502
g3
F33.2882621
sg4
F-83.03613759999999
ssS'Sullivan County, New York'
p1503
(dp1504
g3
F41.6897493
sg4
F-74.7805192
ssS'Orange County, Virginia'
p1505
(dp1506
g3
F38.24266739999999
sg4
F-77.973865
ssS'Greene County, Ohio'
p1507
(dp1508
g3
F39.697399
sg4
F-83.8897057
ssS'Clay County, Kentucky'
p1509
(dp1510
g3
F37.1738044
sg4
F-83.7199136
ssS'Scott County, Tennessee'
p1511
(dp1512
g3
F36.3976209
sg4
F-84.5222189
ssS'Caroline County, Virginia'
p1513
(dp1514
g3
F38.0445557
sg4
F-77.2864879
ssS'Jefferson County, Nebraska'
p1515
(dp1516
g3
F40.16807319999999
sg4
F-97.179026
ssS'Kittitas County, Washington'
p1517
(dp1518
g3
F47.17495479999999
sg4
F-120.9319411
ssS'Rockingham County, Virginia'
p1519
(dp1520
g3
F38.5825919
sg4
F-78.8835548
ssS'Jasper County, South Carolina'
p1521
(dp1522
g3
F32.491436
sg4
F-81.0754657
ssS'Surry County, North Carolina'
p1523
(dp1524
g3
F36.3743453
sg4
F-80.6770787
ssS'Sullivan County, Indiana'
p1525
(dp1526
g3
F39.08431220000001
sg4
F-87.42075179999999
ssS'Wilson County, North Carolina'
p1527
(dp1528
g3
F35.6925497
sg4
F-77.88245959999999
ssS'Orangeburg County, South Carolina'
p1529
(dp1530
g3
F33.5635155
sg4
F-81.0754657
ssS'Kingfisher County, Oklahoma'
p1531
(dp1532
g3
F35.9181468
sg4
F-97.87216
ssS'Elk County, Pennsylvania'
p1533
(dp1534
g3
F41.4284924
sg4
F-78.5660852
ssS'Desha County, Arkansas'
p1535
(dp1536
g3
F33.8773585
sg4
F-91.44346900000001
ssS'Napa County, California'
p1537
(dp1538
g3
F38.5024689
sg4
F-122.2653887
ssS'Greensville County, Virginia'
p1539
(dp1540
g3
F36.60568860000001
sg4
F-77.6077865
ssS'Jefferson County, Kansas'
p1541
(dp1542
g3
F39.2827652
sg4
F-95.3102505
ssS'Bonner County, Idaho'
p1543
(dp1544
g3
F48.2751783
sg4
F-116.5931483
ssS'Missoula County, Montana'
p1545
(dp1546
g3
F47.0240503
sg4
F-113.6869923
ssS'Dickinson County, Michigan'
p1547
(dp1548
g3
F45.9601394
sg4
F-87.8616098
ssS'Rockcastle County, Kentucky'
p1549
(dp1550
g3
F37.3743065
sg4
F-84.3121264
ssS'Lee County, Texas'
p1551
(dp1552
g3
F30.2967161
sg4
F-96.9638624
ssS'Highland County, Ohio'
p1553
(dp1554
g3
F39.2228606
sg4
F-83.5070203
ssS'Morgan County, Georgia'
p1555
(dp1556
g3
F33.5794186
sg4
F-83.46435509999999
ssS'Stokes County, North Carolina'
p1557
(dp1558
g3
F36.4244396
sg4
F-80.23213129999999
ssS'Alamosa County, Colorado'
p1559
(dp1560
g3
F37.654039
sg4
F-105.876004
ssS'Delta County, Michigan'
p1561
(dp1562
g3
F45.7124142
sg4
F-86.98441749999999
ssS'Washington County, Oregon'
p1563
(dp1564
g3
F45.5469616
sg4
F-123.1386021
ssS'Tolland County, Connecticut'
p1565
(dp1566
g3
F41.8418987
sg4
F-72.37846789999999
ssS'Kinney County, Texas'
p1567
(dp1568
g3
F29.2934865
sg4
F-100.3497895
ssS'Gibson County, Indiana'
p1569
(dp1570
g3
F38.3338249
sg4
F-87.5791287
ssS'Claiborne County, Mississippi'
p1571
(dp1572
g3
F31.9438205
sg4
F-90.9438468
ssS'Madison County, Ohio'
p1573
(dp1574
g3
F39.9154985
sg4
F-83.3789389
ssS'Adams County, Colorado'
p1575
(dp1576
g3
F39.8398269
sg4
F-104.1930918
ssS'Glenn County, California'
p1577
(dp1578
g3
F39.6437813
sg4
F-122.4467238
ssS'Reno County, Kansas'
p1579
(dp1580
g3
F37.9569553
sg4
F-98.04651849999999
ssS'Gibson County, Tennessee'
p1581
(dp1582
g3
F35.9969735
sg4
F-88.86469799999999
ssS'Gage County, Nebraska'
p1583
(dp1584
g3
F40.1989041
sg4
F-96.663812
ssS'Merced County, California'
p1585
(dp1586
g3
F37.2009788
sg4
F-120.7120023
ssS'Madison County, Alabama'
p1587
(dp1588
g3
F34.72397309999999
sg4
F-86.49965460000001
ssS'Boone County, Iowa'
p1589
(dp1590
g3
F42.0881747
sg4
F-93.9878427
ssS'West Carroll Parish, Louisiana'
p1591
(dp1592
g3
F32.7545792
sg4
F-91.4821482
ssS'Carroll County, Maryland'
p1593
(dp1594
g3
F39.5423418
sg4
F-77.0564464
ssS'Stewart County, Tennessee'
p1595
(dp1596
g3
F36.5023236
sg4
F-87.77633329999999
ssS'Blaine County, Montana'
p1597
(dp1598
g3
F48.6065395
sg4
F-108.9462246
ssS'Johnson County, Iowa'
p1599
(dp1600
g3
F41.6698982
sg4
F-91.5983959
ssS'Live Oak County, Texas'
p1601
(dp1602
g3
F28.342294
sg4
F-98.04651849999999
ssS'Liberty County, Florida'
p1603
(dp1604
g3
F30.1507777
sg4
F-84.8567932
ssS'Hockley County, Texas'
p1605
(dp1606
g3
F33.6212592
sg4
F-102.3463875
ssS'Morrison County, Minnesota'
p1607
(dp1608
g3
F45.9846475
sg4
F-94.052545
ssS'Honolulu County, Hawaii'
p1609
(dp1610
g3
F21.3069857
sg4
F-157.8584319
ssS'Pearl River County, Mississippi'
p1611
(dp1612
g3
F30.8034081
sg4
F-89.62516459999999
ssS'Bronx County, New York'
p1613
(dp1614
g3
F40.8447819
sg4
F-73.8648268
ssS'Madison County, Florida'
p1615
(dp1616
g3
F30.4586334
sg4
F-83.5070203
ssS'Mendocino County, California'
p1617
(dp1618
g3
F39.5500194
sg4
F-123.438353
ssS'Isle of Wight County, Virginia'
p1619
(dp1620
g3
F36.9288915
sg4
F-76.6874701
ssS'Grant County, Arkansas'
p1621
(dp1622
g3
F34.2628015
sg4
F-92.4208713
ssS'Klamath County, Oregon'
p1623
(dp1624
g3
F42.69527670000001
sg4
F-121.6142133
ssS'Brunswick County, North Carolina'
p1625
(dp1626
g3
F34.0275398
sg4
F-78.2020387
ssS'Highlands County, Florida'
p1627
(dp1628
g3
F27.3400286
sg4
F-81.34002679999999
ssS'Tanacross ANV/ANVSA, Alaska'
p1629
(dp1630
g3
Nsg4
NssS'St. James Parish, Louisiana'
p1631
(dp1632
g3
F30.0179292
sg4
F-90.7913227
ssS'Walthall County, Mississippi'
p1633
(dp1634
g3
F31.125165
sg4
F-90.11206960000001
ssS'Buckingham County, Virginia'
p1635
(dp1636
g3
F37.50700800000001
sg4
F-78.5660852
ssS'McPherson County, Kansas'
p1637
(dp1638
g3
F38.3164433
sg4
F-97.69822719999999
ssS'Wilkinson County, Georgia'
p1639
(dp1640
g3
F32.8024682
sg4
F-83.1649001
ssS'Lewis County, Washington'
p1641
(dp1642
g3
F46.6195461
sg4
F-122.4554639
ssS'Carroll County, Iowa'
p1643
(dp1644
g3
F42.0566912
sg4
F-94.81059549999999
ssS'Shelby County, Iowa'
p1645
(dp1646
g3
F41.7177667
sg4
F-95.3102505
ssS'Saline County, Arkansas'
p1647
(dp1648
g3
F34.5708215
sg4
F-92.539603
ssS'Bandera County, Texas'
p1649
(dp1650
g3
F29.7404135
sg4
F-99.2785583
ssS'Clark County, Nevada'
p1651
(dp1652
g3
F36.0795613
sg4
F-115.094045
ssS'Paulding County, Georgia'
p1653
(dp1654
g3
F33.9142037
sg4
F-84.8984775
ssS'Clark County, Kentucky'
p1655
(dp1656
g3
F37.959945
sg4
F-84.14351359999999
ssS'Trinity County, California'
p1657
(dp1658
g3
F40.6329485
sg4
F-123.0622553
ssS'Carroll County, Tennessee'
p1659
(dp1660
g3
F35.9917193
sg4
F-88.4016041
ssS'Greene County, Arkansas'
p1661
(dp1662
g3
F36.1314931
sg4
F-90.563609
ssS'Staunton city, Virginia'
p1663
(dp1664
g3
F38.149576
sg4
F-79.0716958
ssS'Marshall County, Mississippi'
p1665
(dp1666
g3
F34.7729491
sg4
F-89.4742177
ssS'Pulaski County, Kentucky'
p1667
(dp1668
g3
F37.0853508
sg4
F-84.5222189
ssS'Seminole County, Oklahoma'
p1669
(dp1670
g3
F35.1197519
sg4
F-96.663812
ssS'Orange County, Florida'
p1671
(dp1672
g3
F28.4844995
sg4
F-81.2518833
ssS'Washington County, Ohio'
p1673
(dp1674
g3
F39.4626397
sg4
F-81.47183869999999
ssS'Forsyth County, North Carolina'
p1675
(dp1676
g3
F36.1200003
sg4
F-80.1875065
ssS'Clay County, Texas'
p1677
(dp1678
g3
F33.7900416
sg4
F-98.2212979
ssS'Broward County, Florida'
p1679
(dp1680
g3
F26.190096
sg4
F-80.365865
ssS'Wabash County, Illinois'
p1681
(dp1682
g3
F38.4226484
sg4
F-87.8156715
ssS'Mariposa County, California'
p1683
(dp1684
g3
F37.4893626
sg4
F-119.9679294
ssS'Daviess County, Indiana'
p1685
(dp1686
g3
F38.7020241
sg4
F-87.14228949999999
ssS'Mineral County, West Virginia'
p1687
(dp1688
g3
F39.4068988
sg4
F-78.8835548
ssS'Somerset County, New Jersey'
p1689
(dp1690
g3
F40.5292099
sg4
F-74.64004320000001
ssS'King County, Texas'
p1691
(dp1692
g3
F33.644342
sg4
F-100.1703257
ssS'Luna County, New Mexico'
p1693
(dp1694
g3
F32.3259122
sg4
F-107.8583868
ssS'Greene County, Alabama'
p1695
(dp1696
g3
F32.9718107
sg4
F-87.9334803
ssS'Harris County, Texas'
p1697
(dp1698
g3
F29.7751825
sg4
F-95.3102505
ssS'Montmorency County, Michigan'
p1699
(dp1700
g3
F45.07427939999999
sg4
F-84.1403141
ssS'Grainger County, Tennessee'
p1701
(dp1702
g3
F36.3059333
sg4
F-83.54965659999999
ssS'Kent County, Texas'
p1703
(dp1704
g3
F33.2438434
sg4
F-100.7097867
ssS'Saginaw County, Michigan'
p1705
(dp1706
g3
F43.4044253
sg4
F-84.01674229999999
ssS'Marlboro County, South Carolina'
p1707
(dp1708
g3
F34.5582435
sg4
F-79.6951103
ssS'Will County, Illinois'
p1709
(dp1710
g3
F41.5054724
sg4
F-88.0900762
ssS'Johnson County, Kansas'
p1711
(dp1712
g3
F38.845412
sg4
F-94.8520636
ssS'San Augustine County, Texas'
p1713
(dp1714
g3
F31.4699363
sg4
F-94.15137639999999
ssS'Boone County, West Virginia'
p1715
(dp1716
g3
F37.9838605
sg4
F-81.73494199999999
ssS'Cullman County, Alabama'
p1717
(dp1718
g3
F34.2011537
sg4
F-86.8220341
ssS'Butler County, Kansas'
p1719
(dp1720
g3
F37.8649441
sg4
F-96.83509989999999
ssS'Lafourche Parish, Louisiana'
p1721
(dp1722
g3
F29.6952295
sg4
F-90.52578229999999
ssS'Schoharie County, New York'
p1723
(dp1724
g3
F42.65503349999999
sg4
F-74.4994517
ssS'Crittenden County, Kentucky'
p1725
(dp1726
g3
F37.3673645
sg4
F-88.0900762
ssS'Jefferson County, Washington'
p1727
(dp1728
g3
F47.7424541
sg4
F-123.3040062
ssS'Butler County, Iowa'
p1729
(dp1730
g3
F42.7502186
sg4
F-92.8577105
ssS'Ben Hill County, Georgia'
p1731
(dp1732
g3
F31.7664035
sg4
F-83.2077645
ssS'Richmond County, North Carolina'
p1733
(dp1734
g3
F35.003045
sg4
F-79.7848422
ssS'Mineral County, Montana'
p1735
(dp1736
g3
F47.1497031
sg4
F-114.9626904
ssS'Bradford County, Florida'
p1737
(dp1738
g3
F29.97238179999999
sg4
F-82.1713632
ssS'Hillsborough County, Florida'
p1739
(dp1740
g3
F27.9903597
sg4
F-82.3017728
ssS'Mora County, New Mexico'
p1741
(dp1742
g3
F35.9742154
sg4
F-105.3300508
ssS'Suffolk County, New York'
p1743
(dp1744
g3
F40.9848784
sg4
F-72.61511689999999
ssS'Glascock County, Georgia'
p1745
(dp1746
g3
F33.2422994
sg4
F-82.6267345
ssS'Ellis County, Oklahoma'
p1747
(dp1748
g3
F36.2920072
sg4
F-99.8124935
ssS'Hardy County, West Virginia'
p1749
(dp1750
g3
F39.0416116
sg4
F-78.9288242
ssS'Windham County, Connecticut'
p1751
(dp1752
g3
F41.8275622
sg4
F-72.0468164
ssS'Crenshaw County, Alabama'
p1753
(dp1754
g3
F31.6671872
sg4
F-86.3376761
ssS'Trumbull County, Ohio'
p1755
(dp1756
g3
F41.3064984
sg4
F-80.7214417
ssS'Fort Hall Indian Reservation, Idaho'
p1757
(dp1758
g3
F42.8625814
sg4
F-112.578428
ssS'Catahoula Parish, Louisiana'
p1759
(dp1760
g3
F31.7053083
sg4
F-91.9099238
ssS'Livingston County, Illinois'
p1761
(dp1762
g3
F40.8688604
sg4
F-88.55653099999999
ssS'Oldham County, Texas'
p1763
(dp1764
g3
F35.4247226
sg4
F-102.6216211
ssS'Apache County, Arizona'
p1765
(dp1766
g3
F35.5313224
sg4
F-109.3783206
ssS'Candler County, Georgia'
p1767
(dp1768
g3
F32.4241804
sg4
F-82.08429009999999
ssS'Hendry County, Florida'
p1769
(dp1770
g3
F26.6105319
sg4
F-81.0754657
ssS'Hennepin County, Minnesota'
p1771
(dp1772
g3
F45.0208911
sg4
F-93.5094574
ssS'Andrews County, Texas'
p1773
(dp1774
g3
F32.342627
sg4
F-102.7135121
ssS'Douglas County, Georgia'
p1775
(dp1776
g3
F33.7290225
sg4
F-84.7315563
ssS'Fillmore County, Minnesota'
p1777
(dp1778
g3
F43.6956298
sg4
F-92.0665197
ssS'Portage County, Wisconsin'
p1779
(dp1780
g3
F44.4735957
sg4
F-89.4742177
ssS'Ouray County, Colorado'
p1781
(dp1782
g3
F38.2016133
sg4
F-107.763621
ssS'Musselshell County, Montana'
p1783
(dp1784
g3
F46.4218783
sg4
F-108.4064758
ssS'Anderson County, Tennessee'
p1785
(dp1786
g3
F36.0809574
sg4
F-84.2278796
ssS'Jenkins County, Georgia'
p1787
(dp1788
g3
F32.7781246
sg4
F-81.9971108
ssS'Carroll County, Missouri'
p1789
(dp1790
g3
F39.5166572
sg4
F-93.5003454
ssS'Kossuth County, Iowa'
p1791
(dp1792
g3
F43.25133839999999
sg4
F-94.2333355
ssS'Clinton County, Pennsylvania'
p1793
(dp1794
g3
F41.3331937
sg4
F-77.6536125
ssS'Nash County, North Carolina'
p1795
(dp1796
g3
F35.9597948
sg4
F-77.973865
ssS'Crawford County, Arkansas'
p1797
(dp1798
g3
F35.5762761
sg4
F-94.315422
ssS'Livingston County, Kentucky'
p1799
(dp1800
g3
F37.2431347
sg4
F-88.362785
ssS'Clarke County, Iowa'
p1801
(dp1802
g3
F41.01778360000001
sg4
F-93.7841503
ssS'Hancock County, Iowa'
p1803
(dp1804
g3
F43.0387322
sg4
F-93.66232389999999
ssS'Wayne County, Iowa'
p1805
(dp1806
g3
F40.6677356
sg4
F-93.33889169999999
ssS'Pickens County, Alabama'
p1807
(dp1808
g3
F33.3339954
sg4
F-88.0900762
ssS'Laurens County, Georgia'
p1809
(dp1810
g3
F32.433014
sg4
F-82.99316069999999
ssS'Cotton County, Oklahoma'
p1811
(dp1812
g3
F34.309094
sg4
F-98.3964938
ssS'Grundy County, Tennessee'
p1813
(dp1814
g3
F35.4013452
sg4
F-85.684578
ssS'Richland County, South Carolina'
p1815
(dp1816
g3
F34.0412165
sg4
F-80.9428911
ssS'Saline County, Kansas'
p1817
(dp1818
g3
F38.8174853
sg4
F-97.69822719999999
ssS'Lawrence County, South Dakota'
p1819
(dp1820
g3
F44.31065299999999
sg4
F-103.7979877
ssS'Webster County, Georgia'
p1821
(dp1822
g3
F32.0129889
sg4
F-84.56414699999999
ssS'Clinton County, Michigan'
p1823
(dp1824
g3
F42.9663458
sg4
F-84.5222189
ssS'Grant County, Wisconsin'
p1825
(dp1826
g3
F42.9397015
sg4
F-90.6773046
ssS'Jefferson County, Idaho'
p1827
(dp1828
g3
F43.7640903
sg4
F-112.2493671
ssS'Lucas County, Ohio'
p1829
(dp1830
g3
F41.6894388
sg4
F-83.3789389
ssS'Jones County, Mississippi'
p1831
(dp1832
g3
F31.5343241
sg4
F-89.1705998
ssS'Navarro County, Texas'
p1833
(dp1834
g3
F32.0991878
sg4
F-96.49297969999999
ssS'Waller County, Texas'
p1835
(dp1836
g3
F29.9751629
sg4
F-96.02557379999999
ssS'Lawrence County, Kentucky'
p1837
(dp1838
g3
F38.05267500000001
sg4
F-82.7778579
ssS'Taylor County, Iowa'
p1839
(dp1840
g3
F40.7846069
sg4
F-94.645035
ssS'Taliaferro County, Georgia'
p1841
(dp1842
g3
F33.56978780000001
sg4
F-82.8855961
ssS'Columbia County, Florida'
p1843
(dp1844
g3
F30.1812696
sg4
F-82.605118
ssS'Muscogee County, Georgia'
p1845
(dp1846
g3
F32.4794133
sg4
F-84.8984775
ssS'Lafayette County, Florida'
p1847
(dp1848
g3
F30.0299573
sg4
F-83.2077645
ssS'Venango County, Pennsylvania'
p1849
(dp1850
g3
F41.3896611
sg4
F-79.8296743
ssS'Sangamon County, Illinois'
p1851
(dp1852
g3
F39.7337353
sg4
F-89.62516459999999
ssS'Bernalillo County, New Mexico'
p1853
(dp1854
g3
F35.0177854
sg4
F-106.6291304
ssS'Christian County, Kentucky'
p1855
(dp1856
g3
F36.8410586
sg4
F-87.460397
ssS'Dallam County, Texas'
p1857
(dp1858
g3
F36.20745
sg4
F-102.5298028
ssS'Lafayette County, Wisconsin'
p1859
(dp1860
g3
F42.6293203
sg4
F-90.0746767
ssS'Berkshire County, Massachusetts'
p1861
(dp1862
g3
F42.311782
sg4
F-73.1821623
ssS'Sawyer County, Wisconsin'
p1863
(dp1864
g3
F45.8220169
sg4
F-91.16858859999999
ssS'Terry County, Texas'
p1865
(dp1866
g3
F33.0909654
sg4
F-102.3463875
ssS'Rockdale County, Georgia'
p1867
(dp1868
g3
F33.6752492
sg4
F-84.0378894
ssS'Wright County, Iowa'
p1869
(dp1870
g3
F42.7273744
sg4
F-93.66232389999999
ssS'Blanco County, Texas'
p1871
(dp1872
g3
F30.3500511
sg4
F-98.3964938
ssS'Dodge County, Georgia'
p1873
(dp1874
g3
F32.1287268
sg4
F-83.2077645
ssS'Dare County, North Carolina'
p1875
(dp1876
g3
F35.6549619
sg4
F-75.62080879999999
ssS'Wyandotte County, Kansas'
p1877
(dp1878
g3
F39.0986811
sg4
F-94.7691586
ssS'Armstrong County, Texas'
p1879
(dp1880
g3
F34.937162
sg4
F-101.4339148
ssS'Logan County, Colorado'
p1881
(dp1882
g3
F40.7056181
sg4
F-102.989615
ssS'Yalobusha County, Mississippi'
p1883
(dp1884
g3
F33.9768292
sg4
F-89.6759101
ssS'Cook County, Georgia'
p1885
(dp1886
g3
F31.1428037
sg4
F-83.46435509999999
ssS'Lunenburg County, Virginia'
p1887
(dp1888
g3
F36.92614349999999
sg4
F-78.24761459999999
ssS'Bossier Parish, Louisiana'
p1889
(dp1890
g3
F32.7551322
sg4
F-93.66232389999999
ssS'Ontonagon County, Michigan'
p1891
(dp1892
g3
F46.8727913
sg4
F-89.31311889999999
ssS'Miller County, Arkansas'
p1893
(dp1894
g3
F33.3335556
sg4
F-93.86553029999999
ssS'Sussex County, Delaware'
p1895
(dp1896
g3
F38.65308410000001
sg4
F-75.4344727
ssS'Bosque County, Texas'
p1897
(dp1898
g3
F31.8507607
sg4
F-97.69822719999999
ssS'Lonoke County, Arkansas'
p1899
(dp1900
g3
F34.7591647
sg4
F-91.9099238
ssS'Saratoga County, New York'
p1901
(dp1902
g3
F43.0324245
sg4
F-73.93598209999999
ssS'Hays County, Texas'
p1903
(dp1904
g3
F30.0537607
sg4
F-98.0028892
ssS'Phillips County, Montana'
p1905
(dp1906
g3
F48.4519289
sg4
F-107.8777779
ssS'Lincoln County, Montana'
p1907
(dp1908
g3
F48.5880903
sg4
F-115.6596529
ssS'Lincoln County, Arkansas'
p1909
(dp1910
g3
F33.9185116
sg4
F-91.714958
ssS'Randolph County, Arkansas'
p1911
(dp1912
g3
F36.3457918
sg4
F-90.9820668
ssS'Benson County, North Dakota'
p1913
(dp1914
g3
F48.088634
sg4
F-99.4648442
ssS'Manassas Park city, Virginia'
p1915
(dp1916
g3
F38.7840035
sg4
F-77.4697111
ssS'Troup County, Georgia'
p1917
(dp1918
g3
F33.0698575
sg4
F-85.02334599999999
ssS'Washington County, Georgia'
p1919
(dp1920
g3
F32.962702
sg4
F-82.82097399999999
ssS'Daviess County, Kentucky'
p1921
(dp1922
g3
F37.7307984
sg4
F-87.10237459999999
ssS'Milam County, Texas'
p1923
(dp1924
g3
F30.8092642
sg4
F-96.9795011
ssS'Burt County, Nebraska'
p1925
(dp1926
g3
F41.8252059
sg4
F-96.3226072
ssS'Pickens County, Georgia'
p1927
(dp1928
g3
F34.4497166
sg4
F-84.4592701
ssS'Magoffin County, Kentucky'
p1929
(dp1930
g3
F37.730555
sg4
F-83.03613759999999
ssS'Claiborne Parish, Louisiana'
p1931
(dp1932
g3
F32.7722557
sg4
F-93.0175712
ssS'Van Buren County, Michigan'
p1933
(dp1934
g3
F42.2459665
sg4
F-86.0121573
ssS'Lexington city, Virginia'
p1935
(dp1936
g3
F37.78402080000001
sg4
F-79.4428157
ssS'Bay County, Florida'
p1937
(dp1938
g3
F30.1805306
sg4
F-85.684578
ssS'Montgomery County, Arkansas'
p1939
(dp1940
g3
F34.5424074
sg4
F-93.66232389999999
ssS'Clay County, Arkansas'
p1941
(dp1942
g3
F36.3492244
sg4
F-90.37483540000001
ssS'Coosa County, Alabama'
p1943
(dp1944
g3
F32.8897772
sg4
F-86.2196937
ssS'DeKalb County, Alabama'
p1945
(dp1946
g3
F34.5211397
sg4
F-85.684578
ssS'Hardin County, Iowa'
p1947
(dp1948
g3
F42.4285425
sg4
F-93.17796589999999
ssS'Fayette County, Indiana'
p1949
(dp1950
g3
F39.5920377
sg4
F-85.14793639999999
ssS'Surry County, Virginia'
p1951
(dp1952
g3
F37.1185515
sg4
F-76.8720961
ssS'Gilmer County, West Virginia'
p1953
(dp1954
g3
F38.9203312
sg4
F-80.8543847
ssS'Towns County, Georgia'
p1955
(dp1956
g3
F34.9208214
sg4
F-83.7199136
ssS'Chase County, Kansas'
p1957
(dp1958
g3
F38.3007661
sg4
F-96.57833869999999
ssS'Pulaski County, Illinois'
p1959
(dp1960
g3
F37.2512419
sg4
F-89.1324866
ssS'Nassau County, New York'
p1961
(dp1962
g3
F40.6546145
sg4
F-73.55941279999999
ssS'Preble County, Ohio'
p1963
(dp1964
g3
F39.7778251
sg4
F-84.68974949999999
ssS'Marion County, Iowa'
p1965
(dp1966
g3
F41.3173818
sg4
F-93.17796589999999
ssS'Okanogan County, Washington'
p1967
(dp1968
g3
F48.58968309999999
sg4
F-119.6522139
ssS'Hardin County, Illinois'
p1969
(dp1970
g3
F37.4995097
sg4
F-88.362785
ssS'Athens County, Ohio'
p1971
(dp1972
g3
F39.30303079999999
sg4
F-82.12783999999999
ssS'Burke County, North Carolina'
p1973
(dp1974
g3
F35.7616931
sg4
F-81.73494199999999
ssS'Conecuh County, Alabama'
p1975
(dp1976
g3
F31.501571
sg4
F-86.9824288
ssS'Chickasaw County, Iowa'
p1977
(dp1978
g3
F43.0724667
sg4
F-92.38136209999999
ssS'Sonoma County, California'
p1979
(dp1980
g3
F38.5779555
sg4
F-122.9888319
ssS'Carroll County, Kentucky'
p1981
(dp1982
g3
F38.6748355
sg4
F-85.0649071
ssS'Schuylkill County, Pennsylvania'
p1983
(dp1984
g3
F40.6873058
sg4
F-76.17837390000001
ssS'Scurry County, Texas'
p1985
(dp1986
g3
F32.6937844
sg4
F-100.8903099
ssS'Jefferson County, Colorado'
p1987
(dp1988
g3
F39.5800298
sg4
F-105.2662931
ssS'Montgomery County, Indiana'
p1989
(dp1990
g3
F40.019879
sg4
F-86.8220341
ssS'St. Lawrence County, New York'
p1991
(dp1992
g3
F44.4473142
sg4
F-74.930206
ssS'Cheboygan County, Michigan'
p1993
(dp1994
g3
F45.5472257
sg4
F-84.56362829999999
ssS'Jackson County, Ohio'
p1995
(dp1996
g3
F39.0060382
sg4
F-82.6483442
ssS'Sussex County, Virginia'
p1997
(dp1998
g3
F36.9058167
sg4
F-77.2405153
ssS'Tok ANV/ANVSA, Alaska'
p1999
(dp2000
g3
Nsg4
NssS'Childress County, Texas'
p2001
(dp2002
g3
F34.5257527
sg4
F-100.1703257
ssS'Hardee County, Florida'
p2003
(dp2004
g3
F27.4501733
sg4
F-81.8224362
ssS'Comanche County, Oklahoma'
p2005
(dp2006
g3
F34.6612778
sg4
F-98.3964938
ssS'Lynchburg city, Virginia'
p2007
(dp2008
g3
F37.4137536
sg4
F-79.14224639999999
ssS'Camden County, North Carolina'
p2009
(dp2010
g3
F36.2600564
sg4
F-76.0391909
ssS'Cherokee County, Texas'
p2011
(dp2012
g3
F31.7981828
sg4
F-95.1432068
ssS'Ascension Parish, Louisiana'
p2013
(dp2014
g3
F30.2017295
sg4
F-90.9438468
ssS'Franklin County, Washington'
p2015
(dp2016
g3
F46.49373629999999
sg4
F-118.8672379
ssS'Jefferson County, West Virginia'
p2017
(dp2018
g3
F39.3059841
sg4
F-77.88245959999999
ssS'Carroll County, Georgia'
p2019
(dp2020
g3
F33.5642239
sg4
F-85.0649071
ssS'Bibb County, Georgia'
p2021
(dp2022
g3
F32.7865735
sg4
F-83.7199136
ssS'Coffee County, Alabama'
p2023
(dp2024
g3
F31.4751172
sg4
F-86.0121573
ssS'Huron County, Ohio'
p2025
(dp2026
g3
F41.1266687
sg4
F-82.6483442
ssS'Mahaska County, Iowa'
p2027
(dp2028
g3
F41.32958800000001
sg4
F-92.6983868
ssS'Toombs County, Georgia'
p2029
(dp2030
g3
F32.0795072
sg4
F-82.34518899999999
ssS'Reagan County, Texas'
p2031
(dp2032
g3
F31.2903569
sg4
F-101.5248055
ssS'Sarpy County, Nebraska'
p2033
(dp2034
g3
F41.0744042
sg4
F-96.19513200000002
ssS'Alleghany County, Virginia'
p2035
(dp2036
g3
F37.8531975
sg4
F-80.0534923
ssS'Navajo County, Arizona'
p2037
(dp2038
g3
F35.4019765
sg4
F-110.1402594
ssS'Iron County, Michigan'
p2039
(dp2040
g3
F46.2758153
sg4
F-88.4902778
ssS'Bartholomew County, Indiana'
p2041
(dp2042
g3
F39.206801
sg4
F-85.8895551
ssS'Williams County, Ohio'
p2043
(dp2044
g3
F41.55076020000001
sg4
F-84.5222189
ssS'Harlan County, Kentucky'
p2045
(dp2046
g3
F36.8890304
sg4
F-83.2077645
ssS'Spencer County, Indiana'
p2047
(dp2048
g3
F37.9832621
sg4
F-87.0224442
ssS'Whitley County, Indiana'
p2049
(dp2050
g3
F41.1136133
sg4
F-85.52002399999999
ssS'Grady County, Oklahoma'
p2051
(dp2052
g3
F35.0472662
sg4
F-97.87216
ssS'Coryell County, Texas'
p2053
(dp2054
g3
F31.4774358
sg4
F-97.87216
ssS'Franklin County, Alabama'
p2055
(dp2056
g3
F34.3967457
sg4
F-87.6186379
ssS'Columbia County, Washington'
p2057
(dp2058
g3
F46.2775138
sg4
F-117.814262
ssS'Monroe County, Illinois'
p2059
(dp2060
g3
F38.2742526
sg4
F-90.1869644
ssS'Santa Cruz County, Arizona'
p2061
(dp2062
g3
F31.5986127
sg4
F-110.8076084
ssS'Mason County, Kentucky'
p2063
(dp2064
g3
F38.6194103
sg4
F-83.8897057
ssS'Taylor County, Georgia'
p2065
(dp2066
g3
F32.5407455
sg4
F-84.2278796
ssS'Glacier County, Montana'
p2067
(dp2068
g3
F48.5217475
sg4
F-112.9196649
ssS'Polk County, Texas'
p2069
(dp2070
g3
F30.7150882
sg4
F-94.81059549999999
ssS'Panola County, Mississippi'
p2071
(dp2072
g3
F34.4198016
sg4
F-89.9253233
ssS'New Hanover County, North Carolina'
p2073
(dp2074
g3
F34.2154913
sg4
F-77.88245959999999
ssS'Costilla County, Colorado'
p2075
(dp2076
g3
F37.2049596
sg4
F-105.5005483
ssS'Oswego County, New York'
p2077
(dp2078
g3
F43.482533
sg4
F-76.17837390000001
ssS'Clay County, Mississippi'
p2079
(dp2080
g3
F33.65678380000001
sg4
F-88.8263006
ssS'Pasco County, Florida'
p2081
(dp2082
g3
F28.3232418
sg4
F-82.4319405
ssS'Washington County, Alabama'
p2083
(dp2084
g3
F31.3422346
sg4
F-88.24611829999999
ssS'Meriwether County, Georgia'
p2085
(dp2086
g3
F33.0561282
sg4
F-84.68974949999999
ssS'Bulloch County, Georgia'
p2087
(dp2088
g3
F32.3595678
sg4
F-81.77870209999999
ssS'Gilchrist County, Florida'
p2089
(dp2090
g3
F29.6871128
sg4
F-82.82097399999999
ssS'Effingham County, Georgia'
p2091
(dp2092
g3
F32.378148
sg4
F-81.38393260000001
ssS'Sumner County, Kansas'
p2093
(dp2094
g3
F37.2236052
sg4
F-97.6114217
ssS'Titus County, Texas'
p2095
(dp2096
g3
F33.2493126
sg4
F-94.976654
ssS'Marion County, Indiana'
p2097
(dp2098
g3
F39.83618999999999
sg4
F-86.17517590000001
ssS'Ford County, Illinois'
p2099
(dp2100
g3
F40.4988592
sg4
F-88.2071598
ssS'Morgan County, Indiana'
p2101
(dp2102
g3
F39.51168089999999
sg4
F-86.3376761
ssS'Dickenson County, Virginia'
p2103
(dp2104
g3
F37.0929465
sg4
F-82.34518899999999
ssS'Ouachita Parish, Louisiana'
p2105
(dp2106
g3
F32.4271852
sg4
F-92.2236667
ssS'Lucas County, Iowa'
p2107
(dp2108
g3
F40.9912021
sg4
F-93.33889169999999
ssS'Dorchester County, Maryland'
p2109
(dp2110
g3
F38.4152819
sg4
F-76.17837390000001
ssS'Shawnee County, Kansas'
p2111
(dp2112
g3
F39.0928449
sg4
F-95.81428849999999
ssS'Glasscock County, Texas'
p2113
(dp2114
g3
F31.912308
sg4
F-101.6157773
ssS'Granville County, North Carolina'
p2115
(dp2116
g3
F36.2799451
sg4
F-78.6114999
ssS'Northumberland County, Virginia'
p2117
(dp2118
g3
F37.9035732
sg4
F-76.4100267
ssS'Norfolk County, Massachusetts'
p2119
(dp2120
g3
F42.17668
sg4
F-71.1448516
ssS'Morgan County, Illinois'
p2121
(dp2122
g3
F39.7341219
sg4
F-90.2244662
ssS'Citrus County, Florida'
p2123
(dp2124
g3
F28.8848842
sg4
F-82.5185837
ssS'Mingo County, West Virginia'
p2125
(dp2126
g3
F37.76078010000001
sg4
F-82.1713632
ssS'Lauderdale County, Alabama'
p2127
(dp2128
g3
F34.8840876
sg4
F-87.658113
ssS'Otoe County, Nebraska'
p2129
(dp2130
g3
F40.675971
sg4
F-96.11029429999999
ssS'Allegany County, New York'
p2131
(dp2132
g3
F42.3129816
sg4
F-78.0195387
ssS'Collingsworth County, Texas'
p2133
(dp2134
g3
F35.0351623
sg4
F-100.3497895
ssS'Jessamine County, Kentucky'
p2135
(dp2136
g3
F37.895573
sg4
F-84.56414699999999
ssS'Eddy County, New Mexico'
p2137
(dp2138
g3
F32.4170622
sg4
F-104.4723301
ssS'Toole County, Montana'
p2139
(dp2140
g3
F48.6974247
sg4
F-111.6408212
ssS'Houston County, Minnesota'
p2141
(dp2142
g3
F43.7051652
sg4
F-91.44346900000001
ssS'Hillsdale County, Michigan'
p2143
(dp2144
g3
F41.8685961
sg4
F-84.5222189
ssS'Roberts County, Texas'
p2145
(dp2146
g3
F35.8540979
sg4
F-100.8903099
ssS'Jackson County, Minnesota'
p2147
(dp2148
g3
F43.598799
sg4
F-95.1432068
ssS'Gwinnett County, Georgia'
p2149
(dp2150
g3
F33.9190653
sg4
F-84.01674229999999
ssS'King George County, Virginia'
p2151
(dp2152
g3
F38.2372863
sg4
F-77.1485163
ssS'Union County, Georgia'
p2153
(dp2154
g3
F34.8457601
sg4
F-83.9744262
ssS'Cochise County, Arizona'
p2155
(dp2156
g3
F31.82845799999999
sg4
F-109.949686
ssS'Suffolk city, Virginia'
p2157
(dp2158
g3
F36.7282054
sg4
F-76.5835621
ssS'Delaware County, Indiana'
p2159
(dp2160
g3
F40.2583533
sg4
F-85.39627689999999
ssS'Wyoming County, New York'
p2161
(dp2162
g3
F42.64205200000001
sg4
F-78.2020387
ssS'Carter County, Oklahoma'
p2163
(dp2164
g3
F34.1996254
sg4
F-97.35165579999999
ssS'Motley County, Texas'
p2165
(dp2166
g3
F34.1280332
sg4
F-100.7097867
ssS'McKinley County, New Mexico'
p2167
(dp2168
g3
F35.71524720000001
sg4
F-108.2377519
ssS'Refugio County, Texas'
p2169
(dp2170
g3
F28.3465339
sg4
F-97.1359377
ssS'Fulton County, Georgia'
p2171
(dp2172
g3
F33.8033965
sg4
F-84.3962535
ssS'Allegheny County, Pennsylvania'
p2173
(dp2174
g3
F40.4450813
sg4
F-80.0087746
ssS'Boone County, Indiana'
p2175
(dp2176
g3
F40.0106163
sg4
F-86.49965460000001
ssS'Richardson County, Nebraska'
p2177
(dp2178
g3
F40.0898025
sg4
F-95.6457951
ssS'Hinds County, Mississippi'
p2179
(dp2180
g3
F32.2648353
sg4
F-90.37483540000001
ssS'Fannin County, Georgia'
p2181
(dp2182
g3
F34.8580405
sg4
F-84.2278796
ssS'Stanislaus County, California'
p2183
(dp2184
g3
F37.5090711
sg4
F-120.9876321
ssS'Manitowoc County, Wisconsin'
p2185
(dp2186
g3
F44.109588
sg4
F-87.7752368
ssS'Lincoln County, Colorado'
p2187
(dp2188
g3
F39.0457549
sg4
F-103.3587288
ssS'Ogle County, Illinois'
p2189
(dp2190
g3
F41.9969811
sg4
F-89.3226954
ssS'DeKalb County, Indiana'
p2191
(dp2192
g3
F41.4138928
sg4
F-85.02334599999999
ssS'Chesterfield County, South Carolina'
p2193
(dp2194
g3
F34.6830936
sg4
F-80.1428584
ssS'Christian County, Illinois'
p2195
(dp2196
g3
F39.5672183
sg4
F-89.3226954
ssS'Fulton County, Pennsylvania'
p2197
(dp2198
g3
F39.9048759
sg4
F-78.1564432
ssS'Franklin Parish, Louisiana'
p2199
(dp2200
g3
F32.0737103
sg4
F-91.5983959
ssS'Mason County, Illinois'
p2201
(dp2202
g3
F40.2271003
sg4
F-89.9253233
ssS'Trinity County, Texas'
p2203
(dp2204
g3
F31.0687648
sg4
F-95.1432068
ssS'Suwannee County, Florida'
p2205
(dp2206
g3
F30.24850959999999
sg4
F-82.99316069999999
ssS'Wayne County, Michigan'
p2207
(dp2208
g3
F42.2790746
sg4
F-83.33618799999999
ssS'Nassau County, Florida'
p2209
(dp2210
g3
F30.5927334
sg4
F-81.8224362
ssS'Virginia Beach city, Virginia'
p2211
(dp2212
g3
F36.8529263
sg4
F-75.97798499999999
ssS'Kent County, Maryland'
p2213
(dp2214
g3
F39.2713804
sg4
F-76.1319953
ssS'Chatham County, North Carolina'
p2215
(dp2216
g3
F35.7211289
sg4
F-79.17806999999999
ssS'McMinn County, Tennessee'
p2217
(dp2218
g3
F35.4037048
sg4
F-84.6479124
ssS'Owen County, Kentucky'
p2219
(dp2220
g3
F38.4965261
sg4
F-84.8150781
ssS'St. John the Baptist Parish, Louisiana'
p2221
(dp2222
g3
F30.1118331
sg4
F-90.4879916
ssS'Summit County, Ohio'
p2223
(dp2224
g3
F41.0918991
sg4
F-81.5596427
ssS'Macon County, Alabama'
p2225
(dp2226
g3
F32.3731182
sg4
F-85.684578
ssS'Henry County, Indiana'
p2227
(dp2228
g3
F39.9704844
sg4
F-85.35496499999999
ssS'Fairbanks North Star Borough, Alaska'
p2229
(dp2230
g3
F64.9526102
sg4
F-146.4744155
ssS'Madison County, Indiana'
p2231
(dp2232
g3
F40.1469349
sg4
F-85.684578
ssS'Jackson County, North Carolina'
p2233
(dp2234
g3
F35.3265409
sg4
F-83.12200740000002
ssS'Warren County, Illinois'
p2235
(dp2236
g3
F40.8758777
sg4
F-90.6773046
ssS'Marion County, Mississippi'
p2237
(dp2238
g3
F31.1708442
sg4
F-89.77553379999999
ssS'Cass County, Missouri'
p2239
(dp2240
g3
F38.6574448
sg4
F-94.315422
ssS'Sumter County, South Carolina'
p2241
(dp2242
g3
F33.9123048
sg4
F-80.4103957
ssS'Adams County, Ohio'
p2243
(dp2244
g3
F38.8907822
sg4
F-83.5070203
ssS'Cloud County, Kansas'
p2245
(dp2246
g3
F39.4795571
sg4
F-97.69822719999999
ssS'Spokane County, Washington'
p2247
(dp2248
g3
F47.65869300000001
sg4
F-117.4225481
ssS'Darlington County, South Carolina'
p2249
(dp2250
g3
F34.3649897
sg4
F-80.0087746
ssS'Floyd County, Texas'
p2251
(dp2252
g3
F34.0791533
sg4
F-101.2523792
ssS'Cheyenne County, Colorado'
p2253
(dp2254
g3
F38.8002562
sg4
F-102.6216211
ssS'Vinton County, Ohio'
p2255
(dp2256
g3
F39.2875595
sg4
F-82.5185837
ssS'Chisago County, Minnesota'
p2257
(dp2258
g3
F45.524828
sg4
F-92.9550305
ssS'Cobb County, Georgia'
p2259
(dp2260
g3
F33.8999297
sg4
F-84.56414699999999
ssS'Dubois County, Indiana'
p2261
(dp2262
g3
F38.357918
sg4
F-86.8220341
ssS'Clayton County, Iowa'
p2263
(dp2264
g3
F42.7785285
sg4
F-91.28910359999999
ssS'Delaware County, Ohio'
p2265
(dp2266
g3
F40.3033098
sg4
F-83.03613759999999
ssS'Douglas County, Colorado'
p2267
(dp2268
g3
F39.2587106
sg4
F-104.9388853
ssS'Kitsap County, Washington'
p2269
(dp2270
g3
F47.6476607
sg4
F-122.6412583
ssS'San Juan County, New Mexico'
p2271
(dp2272
g3
F36.3882439
sg4
F-108.2377519
ssS'La Plata County, Colorado'
p2273
(dp2274
g3
F37.2125857
sg4
F-107.763621
ssS'Ashland County, Wisconsin'
p2275
(dp2276
g3
F46.9794969
sg4
F-90.48248919999999
ssS'Curry County, New Mexico'
p2277
(dp2278
g3
F34.5751567
sg4
F-103.2663479
ssS'Deer Lodge County, Montana'
p2279
(dp2280
g3
F46.10953139999999
sg4
F-113.0212247
ssS'Tangipahoa Parish, Louisiana'
p2281
(dp2282
g3
F30.6194521
sg4
F-90.37483540000001
ssS'Cheatham County, Tennessee'
p2283
(dp2284
g3
F36.184749
sg4
F-87.10237459999999
ssS'Wabasha County, Minnesota'
p2285
(dp2286
g3
F44.3020812
sg4
F-92.2236667
ssS'Lafayette Parish, Louisiana'
p2287
(dp2288
g3
F30.1895142
sg4
F-92.02731899999999
ssS'Richmond city, Virginia'
p2289
(dp2290
g3
F37.5407246
sg4
F-77.4360481
ssS'Chester County, South Carolina'
p2291
(dp2292
g3
F34.6707995
sg4
F-81.1196075
ssS'East Carroll Parish, Louisiana'
p2293
(dp2294
g3
F32.7570923
sg4
F-91.2506002
ssS'Cattaraugus County, New York'
p2295
(dp2296
g3
F42.2318132
sg4
F-78.74762079999999
ssS'Geneva County, Alabama'
p2297
(dp2298
g3
F31.0990456
sg4
F-85.684578
ssS'Story County, Iowa'
p2299
(dp2300
g3
F42.1040438
sg4
F-93.5003454
ssS'Saunders County, Nebraska'
p2301
(dp2302
g3
F41.168563
sg4
F-96.663812
ssS'Neosho County, Kansas'
p2303
(dp2304
g3
F37.6045688
sg4
F-95.3102505
ssS'Clay County, Florida'
p2305
(dp2306
g3
F29.9943564
sg4
F-81.77870209999999
ssS'Carlisle County, Kentucky'
p2307
(dp2308
g3
F36.8206685
sg4
F-88.9796776
ssS'Fayette County, Texas'
p2309
(dp2310
g3
F29.8896442
sg4
F-96.83509989999999
ssS'Clay County, Alabama'
p2311
(dp2312
g3
F33.279527
sg4
F-85.84862360000001
ssS'Harrisonburg city, Virginia'
p2313
(dp2314
g3
F38.4495688
sg4
F-78.8689155
ssS'Golden Valley County, Montana'
p2315
(dp2316
g3
F46.3709324
sg4
F-109.174385
ssS'Crawford County, Ohio'
p2317
(dp2318
g3
F40.8268068
sg4
F-82.99316069999999
ssS'Marion County, Tennessee'
p2319
(dp2320
g3
F35.0928512
sg4
F-85.64348700000001
ssS'Rogers County, Oklahoma'
p2321
(dp2322
g3
F36.3898068
sg4
F-95.6457951
ssS'Lamb County, Texas'
p2323
(dp2324
g3
F34.1486153
sg4
F-102.3463875
ssS'Seminole County, Florida'
p2325
(dp2326
g3
F28.7131688
sg4
F-81.20781640000001
ssS'Sagadahoc County, Maine'
p2327
(dp2328
g3
F43.8171265
sg4
F-69.7825531
ssS'Henrico County, Virginia'
p2329
(dp2330
g3
F37.5059332
sg4
F-77.3324425
ssS'Benton County, Arkansas'
p2331
(dp2332
g3
F36.2661518
sg4
F-94.479976
ssS'Curry County, Oregon'
p2333
(dp2334
g3
F42.54405029999999
sg4
F-124.2781761
ssS'Washington Parish, Louisiana'
p2335
(dp2336
g3
F30.80392599999999
sg4
F-90.0746767
ssS'Huntingdon County, Pennsylvania'
p2337
(dp2338
g3
F40.4155273
sg4
F-78.0195387
ssS'Baker County, Florida'
p2339
(dp2340
g3
F30.3931168
sg4
F-82.3017728
ssS'Lincoln County, Georgia'
p2341
(dp2342
g3
F33.7875101
sg4
F-82.4319405
ssS'Wood County, Wisconsin'
p2343
(dp2344
g3
F44.4747774
sg4
F-90.0746767
ssS'Hood County, Texas'
p2345
(dp2346
g3
F32.4296296
sg4
F-97.8286368
ssS'Laurens County, South Carolina'
p2347
(dp2348
g3
F34.5203466
sg4
F-82.12783999999999
ssS'Richland County, Illinois'
p2349
(dp2350
g3
F38.7212791
sg4
F-88.0900762
ssS'Adams County, Idaho'
p2351
(dp2352
g3
F44.9882561
sg4
F-116.4916091
ssS'Montezuma County, Colorado'
p2353
(dp2354
g3
F37.3257517
sg4
F-108.6175626
ssS'Wayne County, Mississippi'
p2355
(dp2356
g3
F31.7130601
sg4
F-88.7108964
ssS'Lincoln County, Wyoming'
p2357
(dp2358
g3
F42.0703294
sg4
F-110.5215459
ssS'Hutchinson County, Texas'
p2359
(dp2360
g3
F35.8031909
sg4
F-101.4339148
ssS'Alfalfa County, Oklahoma'
p2361
(dp2362
g3
F36.7435919
sg4
F-98.3964938
ssS'Grundy County, Illinois'
p2363
(dp2364
g3
F41.3500531
sg4
F-88.4016041
ssS'Antrim County, Michigan'
p2365
(dp2366
g3
F44.9730441
sg4
F-85.1769095
ssS'Yell County, Arkansas'
p2367
(dp2368
g3
F35.0810824
sg4
F-93.33889169999999
ssS'Bond County, Illinois'
p2369
(dp2370
g3
F38.902985
sg4
F-89.4742177
ssS'Madison County, Idaho'
p2371
(dp2372
g3
F43.7508332
sg4
F-111.5583742
ssS'Clearwater County, Idaho'
p2373
(dp2374
g3
F46.6775737
sg4
F-115.5620377
ssS'Burke County, Georgia'
p2375
(dp2376
g3
F33.088805
sg4
F-81.9534815
ssS'Marion County, Florida'
p2377
(dp2378
g3
F29.2787765
sg4
F-82.12783999999999
ssS'Hampshire County, Massachusetts'
p2379
(dp2380
g3
F42.3471357
sg4
F-72.6624209
ssS'Pulaski County, Indiana'
p2381
(dp2382
g3
F40.9957383
sg4
F-86.8220341
ssS'Jasper County, Mississippi'
p2383
(dp2384
g3
F32.0810429
sg4
F-89.1705998
ssS'Stone County, Mississippi'
p2385
(dp2386
g3
F30.8013069
sg4
F-89.1705998
ssS'Polk County, Arkansas'
p2387
(dp2388
g3
F34.5268097
sg4
F-94.15137639999999
ssS'Williamson County, Texas'
p2389
(dp2390
g3
F30.7591685
sg4
F-97.69822719999999
ssS'Vernon Parish, Louisiana'
p2391
(dp2392
g3
F31.1320009
sg4
F-93.17796589999999
ssS'Pacific County, Washington'
p2393
(dp2394
g3
F46.5180824
sg4
F-123.8264512
ssS'Craven County, North Carolina'
p2395
(dp2396
g3
F35.0877672
sg4
F-77.0564464
ssS'Franklin County, Illinois'
p2397
(dp2398
g3
F38.0157197
sg4
F-88.90306
ssS'Lake County, Florida'
p2399
(dp2400
g3
F28.702847
sg4
F-81.77870209999999
ssS'Watauga County, North Carolina'
p2401
(dp2402
g3
F36.1941825
sg4
F-81.73494199999999
ssS'Clinton County, Indiana'
p2403
(dp2404
g3
F40.3376924
sg4
F-86.49965460000001
ssS'Lincoln County, Washington'
p2405
(dp2406
g3
F47.5320525
sg4
F-118.4701194
ssS'Routt County, Colorado'
p2407
(dp2408
g3
F40.4771623
sg4
F-107.1011931
ssS'Quay County, New Mexico'
p2409
(dp2410
g3
F34.9569924
sg4
F-103.7289167
ssS'Lake County, Indiana'
p2411
(dp2412
g3
F41.4897279
sg4
F-87.30161319999999
ssS'Scott County, Arkansas'
p2413
(dp2414
g3
F34.8854732
sg4
F-93.9878427
ssS'Bienville Parish, Louisiana'
p2415
(dp2416
g3
F32.4107403
sg4
F-93.0175712
ssS'Burnett County, Wisconsin'
p2417
(dp2418
g3
F45.8051186
sg4
F-92.2888131
ssS'McLennan County, Texas'
p2419
(dp2420
g3
F31.5182285
sg4
F-97.179026
ssS'Taylor County, Kentucky'
p2421
(dp2422
g3
F37.332884
sg4
F-85.31362179999999
ssS'Orleans Parish, Louisiana'
p2423
(dp2424
g3
F29.95106579999999
sg4
F-90.0715323
ssS'Okaloosa County, Florida'
p2425
(dp2426
g3
F30.57734009999999
sg4
F-86.6611083
ssS'Monroe County, Iowa'
p2427
(dp2428
g3
F41.0040981
sg4
F-92.8577105
ssS'Cedar County, Iowa'
p2429
(dp2430
g3
F41.8346154
sg4
F-91.13530200000001
ssS'Franklin County, Florida'
p2431
(dp2432
g3
F29.7817695
sg4
F-84.8567932
ssS'Ray County, Missouri'
p2433
(dp2434
g3
F39.3354791
sg4
F-93.9878427
ssS'Davidson County, Tennessee'
p2435
(dp2436
g3
F36.1342563
sg4
F-86.8220341
ssS'Crook County, Wyoming'
p2437
(dp2438
g3
F44.4975617
sg4
F-104.6915298
ssS'Treasure County, Montana'
p2439
(dp2440
g3
F46.2106667
sg4
F-107.2586097
ssS'Roger Mills County, Oklahoma'
p2441
(dp2442
g3
F35.616176
sg4
F-99.634135
ssS'Saline County, Illinois'
p2443
(dp2444
g3
F37.7149675
sg4
F-88.55653099999999
ssS'Covington County, Mississippi'
p2445
(dp2446
g3
F31.6732735
sg4
F-89.5874819
ssS'Wood County, Texas'
p2447
(dp2448
g3
F32.8296216
sg4
F-95.35208759999999
ssS'Portsmouth city, Virginia'
p2449
(dp2450
g3
F36.8354258
sg4
F-76.2982742
ssS'Salt Lake County, Utah'
p2451
(dp2452
g3
F40.644188
sg4
F-111.9522491
ssS'Morgan County, West Virginia'
p2453
(dp2454
g3
F39.5073361
sg4
F-78.24761459999999
ssS'Monongalia County, West Virginia'
p2455
(dp2456
g3
F39.6695849
sg4
F-79.96403389999999
ssS'Morehouse Parish, Louisiana'
p2457
(dp2458
g3
F32.796224
sg4
F-91.7538817
ssS'McIntosh County, Georgia'
p2459
(dp2460
g3
F31.4748147
sg4
F-81.38393260000001
ssS'Ramsey County, Minnesota'
p2461
(dp2462
g3
F44.9963986
sg4
F-93.0615978
ssS'Randolph County, North Carolina'
p2463
(dp2464
g3
F35.7449531
sg4
F-79.8296743
ssS'Twin Falls County, Idaho'
p2465
(dp2466
g3
F42.335252
sg4
F-114.6758916
ssS'Washington County, Oklahoma'
p2467
(dp2468
g3
F36.6770984
sg4
F-95.94097099999999
ssS'Weston County, Wyoming'
p2469
(dp2470
g3
F43.9270224
sg4
F-104.4723301
ssS'Sunflower County, Mississippi'
p2471
(dp2472
g3
F33.526164
sg4
F-90.6773046
ssS'Fentress County, Tennessee'
p2473
(dp2474
g3
F36.37106
sg4
F-84.8984775
ssS'Cannon County, Tennessee'
p2475
(dp2476
g3
F35.8070317
sg4
F-86.05296039999999
ssS'Grundy County, Iowa'
p2477
(dp2478
g3
F42.4369506
sg4
F-92.8577105
ssS'Montgomery County, Kentucky'
p2479
(dp2480
g3
F38.0314578
sg4
F-83.8897057
ssS'Marion County, Illinois'
p2481
(dp2482
g3
F38.7313284
sg4
F-88.86469799999999
ssS'Quitman County, Georgia'
p2483
(dp2484
g3
F31.8485969
sg4
F-84.981754
ssS'Henderson County, Texas'
p2485
(dp2486
g3
F32.1321367
sg4
F-95.81428849999999
ssS'Wayne County, Kentucky'
p2487
(dp2488
g3
F36.7571907
sg4
F-84.8567932
ssS'Yuma County, Colorado'
p2489
(dp2490
g3
F40.1448234
sg4
F-102.2547919
ssS'Franklin County, Kansas'
p2491
(dp2492
g3
F38.6165913
sg4
F-95.3102505
ssS'Columbia County, New York'
p2493
(dp2494
g3
F42.3678759
sg4
F-73.55941279999999
ssS'Douglas County, Washington'
p2495
(dp2496
g3
F47.7790617
sg4
F-119.7474606
ssS'Lee County, Arkansas'
p2497
(dp2498
g3
F34.7712669
sg4
F-90.8294002
ssS'Anderson County, Kansas'
p2499
(dp2500
g3
F38.2809328
sg4
F-95.3102505
ssS'Ward County, Texas'
p2501
(dp2502
g3
F31.5395559
sg4
F-103.1279039
ssS'Oconee County, South Carolina'
p2503
(dp2504
g3
F34.74924500000001
sg4
F-82.99316069999999
ssS'McNairy County, Tennessee'
p2505
(dp2506
g3
F35.1183208
sg4
F-88.55653099999999
ssS'Crawford County, Georgia'
p2507
(dp2508
g3
F32.7090798
sg4
F-83.9744262
ssS'Salem County, New Jersey'
p2509
(dp2510
g3
F39.5848777
sg4
F-75.3878525
ssS'Guernsey County, Ohio'
p2511
(dp2512
g3
F40.0731129
sg4
F-81.42789839999999
ssS'Grant County, Kentucky'
p2513
(dp2514
g3
F38.6565245
sg4
F-84.6479124
ssS'Fayette County, Georgia'
p2515
(dp2516
g3
F33.4502206
sg4
F-84.4802606
ssS'Converse County, Wyoming'
p2517
(dp2518
g3
F43.0489425
sg4
F-105.4068079
ssS'Calhoun County, Texas'
p2519
(dp2520
g3
F28.4169365
sg4
F-96.663812
ssS'Haskell County, Texas'
p2521
(dp2522
g3
F33.1403423
sg4
F-99.8124935
ssS'Harrison County, Ohio'
p2523
(dp2524
g3
F40.3340479
sg4
F-81.1196075
ssS'Clay County, West Virginia'
p2525
(dp2526
g3
F38.4417717
sg4
F-81.1196075
ssS'Warren County, New York'
p2527
(dp2528
g3
F43.6078891
sg4
F-73.7477857
ssS'Assumption Parish, Louisiana'
p2529
(dp2530
g3
F29.9232544
sg4
F-91.09693999999999
ssS'Dallas County, Arkansas'
p2531
(dp2532
g3
F34.0346533
sg4
F-92.6983868
ssS'Colquitt County, Georgia'
p2533
(dp2534
g3
F31.2072856
sg4
F-83.8473015
ssS'Del Norte County, California'
p2535
(dp2536
g3
F41.7076287
sg4
F-123.9659708
ssS'Cass County, Indiana'
p2537
(dp2538
g3
F40.8199089
sg4
F-86.3376761
ssS'Martin County, Kentucky'
p2539
(dp2540
g3
F37.7833756
sg4
F-82.5185837
ssS'Union Parish, Louisiana'
p2541
(dp2542
g3
F32.7859102
sg4
F-92.38136209999999
ssS'Pendleton County, West Virginia'
p2543
(dp2544
g3
F38.74517669999999
sg4
F-79.29021329999999
ssS'Gallatin County, Illinois'
p2545
(dp2546
g3
F37.7107751
sg4
F-88.24611829999999
ssS'Madison County, Tennessee'
p2547
(dp2548
g3
F35.6479574
sg4
F-88.86469799999999
ssS'Jim Hogg County, Texas'
p2549
(dp2550
g3
F26.995506
sg4
F-98.7481167
ssS'Otsego County, Michigan'
p2551
(dp2552
g3
F45.0992063
sg4
F-84.6482398
ssS'Randolph County, West Virginia'
p2553
(dp2554
g3
F38.8092552
sg4
F-80.0087746
ssS'Prowers County, Colorado'
p2555
(dp2556
g3
F37.84337560000001
sg4
F-102.2547919
ssS'Henry County, Kentucky'
p2557
(dp2558
g3
F38.4268385
sg4
F-85.14793639999999
ssS'Golden Valley County, North Dakota'
p2559
(dp2560
g3
F47.0077031
sg4
F-103.7914154
ssS'Meade County, South Dakota'
p2561
(dp2562
g3
F44.4415188
sg4
F-102.6855069
ssS'Johnston County, North Carolina'
p2563
(dp2564
g3
F35.4403514
sg4
F-78.3842227
ssS'Acadia Parish, Louisiana'
p2565
(dp2566
g3
F30.2297347
sg4
F-92.38136209999999
ssS'Hidalgo County, Texas'
p2567
(dp2568
g3
F26.4656319
sg4
F-98.2212979
ssS'Menominee County, Wisconsin'
p2569
(dp2570
g3
F44.88577919999999
sg4
F-88.6507943
ssS'Clinton County, Illinois'
p2571
(dp2572
g3
F38.56844419999999
sg4
F-89.62516459999999
ssS'Schleicher County, Texas'
p2573
(dp2574
g3
F30.9234947
sg4
F-100.5296115
ssS'Terrebonne Parish, Louisiana'
p2575
(dp2576
g3
F29.2299682
sg4
F-90.7532809
ssS'Johnson County, Texas'
p2577
(dp2578
g3
F32.4133566
sg4
F-97.35165579999999
ssS'Ripley County, Indiana'
p2579
(dp2580
g3
F39.0986811
sg4
F-85.2308414
ssS'Baldwin County, Alabama'
p2581
(dp2582
g3
F30.6010744
sg4
F-87.77633329999999
ssS'Gratiot County, Michigan'
p2583
(dp2584
g3
F43.2836505
sg4
F-84.68974949999999
ssS'Burleson County, Texas'
p2585
(dp2586
g3
F30.4500257
sg4
F-96.663812
ssS'Marathon County, Wisconsin'
p2587
(dp2588
g3
F44.850452
sg4
F-89.8505012
ssS'Howard County, Iowa'
p2589
(dp2590
g3
F43.3819496
sg4
F-92.38136209999999
ssS'Hyde County, North Carolina'
p2591
(dp2592
g3
F35.3777712
sg4
F-76.17837390000001
ssS'Santa Fe County, New Mexico'
p2593
(dp2594
g3
F35.3653705
sg4
F-105.9699878
ssS'Jasper County, Indiana'
p2595
(dp2596
g3
F41.0040981
sg4
F-87.14228949999999
ssS'Okmulgee County, Oklahoma'
p2597
(dp2598
g3
F35.6795873
sg4
F-95.9832577
ssS'Washington County, Iowa'
p2599
(dp2600
g3
F41.3477966
sg4
F-91.7538817
ssS'Newberry County, South Carolina'
p2601
(dp2602
g3
F34.309094
sg4
F-81.6035062
ssS'Jackson County, Colorado'
p2603
(dp2604
g3
F40.6819242
sg4
F-106.2522143
ssS'Jefferson County, Oklahoma'
p2605
(dp2606
g3
F34.1672949
sg4
F-97.87216
ssS'Outagamie County, Wisconsin'
p2607
(dp2608
g3
F44.4636545
sg4
F-88.4016041
ssS'Palm Beach County, Florida'
p2609
(dp2610
g3
F26.6514503
sg4
F-80.2767327
ssS'Huerfano County, Colorado'
p2611
(dp2612
g3
F37.6125984
sg4
F-104.9388853
ssS'Olmsted County, Minnesota'
p2613
(dp2614
g3
F43.995179
sg4
F-92.38136209999999
ssS'Wharton County, Texas'
p2615
(dp2616
g3
F29.36909319999999
sg4
F-96.15269850000001
ssS'Clarke County, Mississippi'
p2617
(dp2618
g3
F32.077218
sg4
F-88.7108964
ssS'Durham County, North Carolina'
p2619
(dp2620
g3
F36.0221805
sg4
F-78.9031279
ssS'Walker County, Georgia'
p2621
(dp2622
g3
F34.6858231
sg4
F-85.35496499999999
ssS'Mississippi County, Missouri'
p2623
(dp2624
g3
F36.8661576
sg4
F-89.3226954
ssS'Cowley County, Kansas'
p2625
(dp2626
g3
F37.2660235
sg4
F-96.9209135
ssS'Tazewell County, Illinois'
p2627
(dp2628
g3
F40.5522078
sg4
F-89.4742177
ssS'Huntington County, Indiana'
p2629
(dp2630
g3
F40.7911217
sg4
F-85.52002399999999
ssS'Dyer County, Tennessee'
p2631
(dp2632
g3
F36.0445248
sg4
F-89.436391
ssS'Caldwell Parish, Louisiana'
p2633
(dp2634
g3
F32.0669717
sg4
F-92.0665197
ssS'Lawrence County, Indiana'
p2635
(dp2636
g3
F38.8518863
sg4
F-86.49965460000001
ssS'Plaquemines Parish, Louisiana'
p2637
(dp2638
g3
F29.3240045
sg4
F-89.4742177
ssS'Tallahatchie County, Mississippi'
p2639
(dp2640
g3
F33.9302578
sg4
F-90.1869644
ssS'Anoka County, Minnesota'
p2641
(dp2642
g3
F45.3292832
sg4
F-93.2197005
ssS'Livingston County, Michigan'
p2643
(dp2644
g3
F42.6207951
sg4
F-83.8473015
ssS'Phillips County, Arkansas'
p2645
(dp2646
g3
F34.4611206
sg4
F-90.86751339999999
ssS'Mercer County, Kentucky'
p2647
(dp2648
g3
F37.8258603
sg4
F-84.8984775
ssS'Cochran County, Texas'
p2649
(dp2650
g3
F33.5643803
sg4
F-102.8975098
ssS'Spartanburg County, South Carolina'
p2651
(dp2652
g3
F34.860551
sg4
F-81.9534815
ssS'Giles County, Virginia'
p2653
(dp2654
g3
F37.3132885
sg4
F-80.6770787
ssS'McCulloch County, Texas'
p2655
(dp2656
g3
F31.2016122
sg4
F-99.2785583
ssS'Meagher County, Montana'
p2657
(dp2658
g3
F46.620195
sg4
F-110.8848271
ssS'Bartow County, Georgia'
p2659
(dp2660
g3
F34.2660473
sg4
F-84.8150781
ssS'Union County, Illinois'
p2661
(dp2662
g3
F37.5086525
sg4
F-89.28472510000002
ssS'Grant County, Oklahoma'
p2663
(dp2664
g3
F36.79093
sg4
F-97.69822719999999
ssS'Luzerne County, Pennsylvania'
p2665
(dp2666
g3
F41.1404353
sg4
F-75.9927652
ssS'Black Hawk County, Iowa'
p2667
(dp2668
g3
F42.447804
sg4
F-92.38136209999999
ssS'Owyhee County, Idaho'
p2669
(dp2670
g3
F42.6827359
sg4
F-116.0622892
ssS'Manassas city, Virginia'
p2671
(dp2672
g3
F38.7509488
sg4
F-77.47526669999999
ssS'Suffolk County, Massachusetts'
p2673
(dp2674
g3
F42.3522866
sg4
F-71.0504229
ssS'Monroe County, Alabama'
p2675
(dp2676
g3
F31.5119068
sg4
F-87.460397
ssS'Greenup County, Kentucky'
p2677
(dp2678
g3
F38.5665695
sg4
F-82.95015579999999
ssS'Montgomery County, Georgia'
p2679
(dp2680
g3
F32.1802095
sg4
F-82.5185837
ssS'White County, Illinois'
p2681
(dp2682
g3
F38.0501137
sg4
F-88.24611829999999
ssS'Dauphin County, Pennsylvania'
p2683
(dp2684
g3
F40.2734277
sg4
F-76.7336521
ssS'Dickens County, Texas'
p2685
(dp2686
g3
F33.5985109
sg4
F-100.7097867
ssS'Stonewall County, Texas'
p2687
(dp2688
g3
F33.1114912
sg4
F-100.1703257
ssS'Broome County, New York'
p2689
(dp2690
g3
F42.1791865
sg4
F-75.8533954
ssS'Riverside County, California'
p2691
(dp2692
g3
F33.9532966
sg4
F-117.3961192
ssS'Duplin County, North Carolina'
p2693
(dp2694
g3
F34.8840095
sg4
F-78.0195387
ssS'Monroe County, Pennsylvania'
p2695
(dp2696
g3
F41.0458376
sg4
F-75.2479061
ssS'Wicomico County, Maryland'
p2697
(dp2698
g3
F38.3941813
sg4
F-75.667356
ssS'Randolph County, Illinois'
p2699
(dp2700
g3
F38.0629321
sg4
F-89.77553379999999
ssS'Bowman County, North Dakota'
p2701
(dp2702
g3
F46.0945462
sg4
F-103.556038
ssS'Fond du Lac County, Wisconsin'
p2703
(dp2704
g3
F43.7008379
sg4
F-88.24611829999999
ssS'Santa Cruz County, California'
p2705
(dp2706
g3
F37.0453988
sg4
F-121.9579578
ssS'Marshall County, Tennessee'
p2707
(dp2708
g3
F35.4792517
sg4
F-86.7818523
ssS'Wake County, North Carolina'
p2709
(dp2710
g3
F35.8031909
sg4
F-78.5660852
ssS'Noxubee County, Mississippi'
p2711
(dp2712
g3
F33.1605608
sg4
F-88.55653099999999
ssS'Oakland County, Michigan'
p2713
(dp2714
g3
F42.59219239999999
sg4
F-83.33618799999999
ssS'Cassia County, Idaho'
p2715
(dp2716
g3
F42.358036
sg4
F-113.5728501
ssS'Ravalli County, Montana'
p2717
(dp2718
g3
F46.0174639
sg4
F-114.1817424
ssS'Concordia Parish, Louisiana'
p2719
(dp2720
g3
F31.4808983
sg4
F-91.63721500000001
ssS'Talbot County, Maryland'
p2721
(dp2722
g3
F38.7803973
sg4
F-76.1319953
ssS'Gates County, North Carolina'
p2723
(dp2724
g3
F36.4202077
sg4
F-76.6874701
ssS'Allamakee County, Iowa'
p2725
(dp2726
g3
F43.2430754
sg4
F-91.44346900000001
ssS'Mahoning County, Ohio'
p2727
(dp2728
g3
F40.9871753
sg4
F-80.7214417
ssS'Nottoway County, Virginia'
p2729
(dp2730
g3
F37.1148487
sg4
F-78.0195387
ssS'El Paso County, Texas'
p2731
(dp2732
g3
F31.8039824
sg4
F-106.2051484
ssS'Hale County, Alabama'
p2733
(dp2734
g3
F32.7859102
sg4
F-87.6186379
ssS'Cherokee County, Iowa'
p2735
(dp2736
g3
F42.8027756
sg4
F-95.6457951
ssS'Morris County, New Jersey'
p2737
(dp2738
g3
F40.8336038
sg4
F-74.54632819999999
ssS'McMullen County, Texas'
p2739
(dp2740
g3
F28.3102323
sg4
F-98.5721016
ssS'Montgomery County, Illinois'
p2741
(dp2742
g3
F39.2363688
sg4
F-89.4742177
ssS'Page County, Virginia'
p2743
(dp2744
g3
F38.63013309999999
sg4
F-78.52065
ssS'Shiawassee County, Michigan'
p2745
(dp2746
g3
F42.949754
sg4
F-84.1857115
ssS'Catoosa County, Georgia'
p2747
(dp2748
g3
F34.8981727
sg4
F-85.14793639999999
ssS'Tuolumne County, California'
p2749
(dp2750
g3
F38.029655
sg4
F-119.9740534
ssS'Lehigh County, Pennsylvania'
p2751
(dp2752
g3
F40.6519679
sg4
F-75.5742467
ssS'Rowan County, North Carolina'
p2753
(dp2754
g3
F35.6303455
sg4
F-80.54384499999999
ssS'Jackson County, Illinois'
p2755
(dp2756
g3
F37.7218304
sg4
F-89.3226954
ssS'Montcalm County, Michigan'
p2757
(dp2758
g3
F43.3057341
sg4
F-85.1894045
ssS'Berkeley County, West Virginia'
p2759
(dp2760
g3
F39.4885604
sg4
F-78.0651931
ssS'Broadwater County, Montana'
p2761
(dp2762
g3
F46.2693726
sg4
F-111.4519716
ssS'Greenville County, South Carolina'
p2763
(dp2764
g3
F34.9297484
sg4
F-82.34518899999999
ssS'Baldwin County, Georgia'
p2765
(dp2766
g3
F33.0338083
sg4
F-83.2934086
ssS'Osceola County, Michigan'
p2767
(dp2768
g3
F43.92572790000001
sg4
F-85.35496499999999
ssS'Gadsden County, Florida'
p2769
(dp2770
g3
F30.5562947
sg4
F-84.6479124
ssS'Morgan County, Colorado'
p2771
(dp2772
g3
F40.2989226
sg4
F-103.7289167
ssS'Drew County, Arkansas'
p2773
(dp2774
g3
F33.5156463
sg4
F-91.7538817
ssS'Coweta County, Georgia'
p2775
(dp2776
g3
F33.3716708
sg4
F-84.7315563
ssS'Nantucket County, Massachusetts'
p2777
(dp2778
g3
F41.2834704
sg4
F-70.099451
ssS'Yuba County, California'
p2779
(dp2780
g3
F39.2547027
sg4
F-121.3998995
ssS'Gooding County, Idaho'
p2781
(dp2782
g3
F42.9180557
sg4
F-114.7494346
ssS'Rice County, Minnesota'
p2783
(dp2784
g3
F44.2749995
sg4
F-93.33889169999999
ssS'Palo Alto County, Iowa'
p2785
(dp2786
g3
F43.1580878
sg4
F-94.645035
ssS'Greene County, North Carolina'
p2787
(dp2788
g3
F35.5013936
sg4
F-77.69941969999999
ssS'Miami County, Kansas'
p2789
(dp2790
g3
F38.6381689
sg4
F-94.81059549999999
ssS'Hill County, Montana'
p2791
(dp2792
g3
F48.7488096
sg4
F-110.0350874
ssS'Dorchester County, South Carolina'
p2793
(dp2794
g3
F33.1680383
sg4
F-80.54384499999999
ssS'Jefferson County, Florida'
p2795
(dp2796
g3
F30.4311978
sg4
F-83.8897057
ssS'Minidoka County, Idaho'
p2797
(dp2798
g3
F42.8409971
sg4
F-113.5808126
ssS'Evans County, Georgia'
p2799
(dp2800
g3
F32.1427011
sg4
F-81.909826
ssS'Chaffee County, Colorado'
p2801
(dp2802
g3
F38.7536679
sg4
F-106.2522143
ssS'McHenry County, Illinois'
p2803
(dp2804
g3
F42.3039993
sg4
F-88.4016041
ssS'Union County, Ohio'
p2805
(dp2806
g3
F40.36163820000001
sg4
F-83.33618799999999
ssS'Orange County, California'
p2807
(dp2808
g3
F33.7174708
sg4
F-117.8311428
ssS'San Joaquin County, California'
p2809
(dp2810
g3
F37.9175935
sg4
F-121.1710389
ssS'Washington County, Texas'
p2811
(dp2812
g3
F30.2352956
sg4
F-96.365157
ssS'Starr County, Texas'
p2813
(dp2814
g3
F26.6215167
sg4
F-98.7481167
ssS'Charlottesville city, Virginia'
p2815
(dp2816
g3
F38.0293059
sg4
F-78.47667810000002
ssS'Alger County, Michigan'
p2817
(dp2818
g3
F46.4246176
sg4
F-86.4904519
ssS'Jefferson County, Kentucky'
p2819
(dp2820
g3
F38.1938097
sg4
F-85.64348700000001
ssS'Elbert County, Georgia'
p2821
(dp2822
g3
F34.0795372
sg4
F-82.8640623
ssS'Barbour County, Alabama'
p2823
(dp2824
g3
F31.8172896
sg4
F-85.35496499999999
ssS'Hancock County, Tennessee'
p2825
(dp2826
g3
F36.5456022
sg4
F-83.2077645
ssS'Worcester County, Massachusetts'
p2827
(dp2828
g3
F42.4096528
sg4
F-71.8571331
ssS'Roscommon County, Michigan'
p2829
(dp2830
g3
F44.3516109
sg4
F-84.68974949999999
ssS'Lawrence County, Arkansas'
p2831
(dp2832
g3
F35.9969735
sg4
F-91.13530200000001
ssS'Putnam County, Tennessee'
p2833
(dp2834
g3
F36.134602
sg4
F-85.47880649999999
ssS'Hale County, Texas'
p2835
(dp2836
g3
F34.1064941
sg4
F-101.8891721
ssS'Grenada County, Mississippi'
p2837
(dp2838
g3
F33.7516314
sg4
F-89.81303559999999
ssS'Eastern Band of Cherokee Indians of North Carolina, North Carolina'
p2839
(dp2840
g3
F35.4847826
sg4
F-83.32346509999999
ssS'Bonneville County, Idaho'
p2841
(dp2842
g3
F43.4508683
sg4
F-111.5455289
ssS'Washington County, Indiana'
p2843
(dp2844
g3
F38.6744747
sg4
F-86.17517590000001
ssS'Fisher County, Texas'
p2845
(dp2846
g3
F32.7398733
sg4
F-100.3497895
ssS'Avoyelles Parish, Louisiana'
p2847
(dp2848
g3
F30.9711824
sg4
F-92.0665197
ssS'Coahoma County, Mississippi'
p2849
(dp2850
g3
F34.1960298
sg4
F-90.6393702
ssS'Forsyth County, Georgia'
p2851
(dp2852
g3
F34.2358502
sg4
F-84.14351359999999
ssS'Jackson County, Arkansas'
p2853
(dp2854
g3
F35.6479574
sg4
F-91.13530200000001
ssS'Moffat County, Colorado'
p2855
(dp2856
g3
F40.6138379
sg4
F-108.2377519
ssS'Hamilton County, Ohio'
p2857
(dp2858
g3
F39.2355447
sg4
F-84.56414699999999
ssS'Douglas County, Nebraska'
p2859
(dp2860
g3
F41.3148116
sg4
F-96.19513200000002
ssS'Kendall County, Texas'
p2861
(dp2862
g3
F29.9603413
sg4
F-98.7481167
ssS'Custer County, Idaho'
p2863
(dp2864
g3
F44.3331898
sg4
F-114.2614334
ssS'Mayes County, Oklahoma'
p2865
(dp2866
g3
F36.2322429
sg4
F-95.3102505
ssS'Montgomery County, Maryland'
p2867
(dp2868
g3
F39.1547426
sg4
F-77.2405153
ssS'Creek County, Oklahoma'
p2869
(dp2870
g3
F35.8362494
sg4
F-96.3226072
ssS'Pike County, Pennsylvania'
p2871
(dp2872
g3
F41.3361875
sg4
F-75.06111469999999
ssS'Wayne County, Illinois'
p2873
(dp2874
g3
F38.3899815
sg4
F-88.4016041
ssS'DeKalb County, Illinois'
p2875
(dp2876
g3
F41.8329981
sg4
F-88.7108964
ssS'Oxford County, Maine'
p2877
(dp2878
g3
F44.4906897
sg4
F-70.7840564
ssS'Richland County, Wisconsin'
p2879
(dp2880
g3
F43.4060497
sg4
F-90.37483540000001
ssS'Chowan County, North Carolina'
p2881
(dp2882
g3
F36.1354131
sg4
F-76.6181655
ssS'Kerr County, Texas'
p2883
(dp2884
g3
F30.0945305
sg4
F-99.456155
ssS'Yazoo County, Mississippi'
p2885
(dp2886
g3
F32.8078912
sg4
F-90.37483540000001
ssS'Washington County, New York'
p2887
(dp2888
g3
F43.2519472
sg4
F-73.37086959999999
ssS'Henderson County, Tennessee'
p2889
(dp2890
g3
F35.6427245
sg4
F-88.4016041
ssS'Logan County, Oklahoma'
p2891
(dp2892
g3
F35.9404623
sg4
F-97.5247243
ssS'Knox County, Tennessee'
p2893
(dp2894
g3
F35.9874629
sg4
F-83.9419784
ssS'Bay County, Michigan'
p2895
(dp2896
g3
F43.7109732
sg4
F-84.01674229999999
ssS'Washtenaw County, Michigan'
p2897
(dp2898
g3
F42.3076493
sg4
F-83.8473015
ssS'Montrose County, Colorado'
p2899
(dp2900
g3
F38.468304
sg4
F-108.1428669
ssS'Lowndes County, Georgia'
p2901
(dp2902
g3
F30.8600022
sg4
F-83.2934086
ssS'Dakota County, Minnesota'
p2903
(dp2904
g3
F44.731554
sg4
F-93.17796589999999
ssS'Benton County, Washington'
p2905
(dp2906
g3
F46.3166362
sg4
F-119.5021582
ssS'Jefferson County, Oregon'
p2907
(dp2908
g3
F44.6673324
sg4
F-121.1785788
ssS'Fulton County, Arkansas'
p2909
(dp2910
g3
F36.3797374
sg4
F-91.7928402
ssS'Carroll County, Mississippi'
p2911
(dp2912
g3
F33.5279848
sg4
F-89.9253233
ssS'Dickinson County, Kansas'
p2913
(dp2914
g3
F38.85059770000001
sg4
F-97.179026
ssS'Iroquois County, Illinois'
p2915
(dp2916
g3
F40.7740275
sg4
F-87.697554
ssS'Frederick County, Virginia'
p2917
(dp2918
g3
F39.2096441
sg4
F-78.2601024
ssS'Ellis County, Texas'
p2919
(dp2920
g3
F32.2619765
sg4
F-96.83509989999999
ssS'Price County, Wisconsin'
p2921
(dp2922
g3
F45.7511666
sg4
F-90.4622144
ssS'Montgomery County, North Carolina'
p2923
(dp2924
g3
F35.3587922
sg4
F-79.87448359999999
ssS'Santa Rosa County, Florida'
p2925
(dp2926
g3
F30.7689907
sg4
F-86.9824288
ssS'Limestone County, Alabama'
p2927
(dp2928
g3
F34.78000720000001
sg4
F-86.9423801
ssS'Long County, Georgia'
p2929
(dp2930
g3
F31.7755541
sg4
F-81.8224362
ssS'Braxton County, West Virginia'
p2931
(dp2932
g3
F38.7023371
sg4
F-80.7214417
ssS'Genesee County, Michigan'
p2933
(dp2934
g3
F43.0777289
sg4
F-83.67739279999999
ssS'Wells County, Indiana'
p2935
(dp2936
g3
F40.7778348
sg4
F-85.1894045
ssS'Seneca County, New York'
p2937
(dp2938
g3
F42.7651891
sg4
F-76.8720961
ssS'Perry County, Pennsylvania'
p2939
(dp2940
g3
F40.371376
sg4
F-77.2405153
ssS'White Mountain Apache Tribe, Arizona'
p2941
(dp2942
g3
F33.9167151
sg4
F-110.1673273
ssS'Piatt County, Illinois'
p2943
(dp2944
g3
F40.0543526
sg4
F-88.55653099999999
ssS'Grady County, Georgia'
p2945
(dp2946
g3
F30.9050079
sg4
F-84.2278796
ssS'Nevada County, California'
p2947
(dp2948
g3
F39.1346666
sg4
F-121.1710389
ssS'Clay County, Georgia'
p2949
(dp2950
g3
F31.6447931
sg4
F-85.0025539
ssS'Rapides Parish, Louisiana'
p2951
(dp2952
g3
F31.1461104
sg4
F-92.539603
ssS'Jefferson County, Iowa'
p2953
(dp2954
g3
F41.0236358
sg4
F-91.9099238
ssS'Benton County, Tennessee'
p2955
(dp2956
g3
F36.1170244
sg4
F-88.050979
ssS'Bleckley County, Georgia'
p2957
(dp2958
g3
F32.4087854
sg4
F-83.3789389
ssS'Baraga County, Michigan'
p2959
(dp2960
g3
F46.7352761
sg4
F-88.3010401
ssS'Madison County, Montana'
p2961
(dp2962
g3
F45.466729
sg4
F-111.8865015
ssS'Fremont County, Colorado'
p2963
(dp2964
g3
F38.5306514
sg4
F-105.5005483
ssS'LaSalle County, Illinois'
p2965
(dp2966
g3
F41.4363987
sg4
F-88.94138650000001
ssS'Jackson County, Wisconsin'
p2967
(dp2968
g3
F44.3206549
sg4
F-90.8294002
ssS'Blackfeet Indian Reservation, Montana'
p2969
(dp2970
g3
F48.6666441
sg4
F-112.9175826
ssS'Ness County, Kansas'
p2971
(dp2972
g3
F38.4769509
sg4
F-99.99122539999999
ssS'Clay County, Tennessee'
p2973
(dp2974
g3
F36.5701766
sg4
F-85.56121
ssS'Campbell County, Virginia'
p2975
(dp2976
g3
F37.221014
sg4
F-79.1096901
ssS'Jackson County, Michigan'
p2977
(dp2978
g3
F42.1764362
sg4
F-84.3542049
ssS'Bingham County, Idaho'
p2979
(dp2980
g3
F43.2112303
sg4
F-112.3624146
ssS'Power County, Idaho'
p2981
(dp2982
g3
F42.7528492
sg4
F-112.7684521
ssS'St. Louis County, Missouri'
p2983
(dp2984
g3
F38.6103023
sg4
F-90.4125181
ssS'Westchester County, New York'
p2985
(dp2986
g3
F41.1220194
sg4
F-73.7948516
ssS'New Kent County, Virginia'
p2987
(dp2988
g3
F37.4653757
sg4
F-76.964306
ssS'Alameda County, California'
p2989
(dp2990
g3
F37.6016892
sg4
F-121.7195459
ssS'Cortland County, New York'
p2991
(dp2992
g3
F42.5440918
sg4
F-75.9927652
ssS'Neshoba County, Mississippi'
p2993
(dp2994
g3
F32.8057157
sg4
F-89.1705998
ssS'Haywood County, North Carolina'
p2995
(dp2996
g3
F35.624394
sg4
F-82.99316069999999
ssS'Bannock County, Idaho'
p2997
(dp2998
g3
F42.5836362
sg4
F-112.1430215
ssS'Allendale County, South Carolina'
p2999
(dp3000
g3
F33.0059695
sg4
F-81.38393260000001
ssS'Faulkner County, Arkansas'
p3001
(dp3002
g3
F35.1035858
sg4
F-92.38136209999999
ssS'Lawrence County, Ohio'
p3003
(dp3004
g3
F38.6232686
sg4
F-82.5185837
ssS'Hartley County, Texas'
p3005
(dp3006
g3
F35.86479569999999
sg4
F-102.5298028
ssS'Franklin County, Ohio'
p3007
(dp3008
g3
F40.0154745
sg4
F-82.99316069999999
ssS'Oldham County, Kentucky'
p3009
(dp3010
g3
F38.3560025
sg4
F-85.47880649999999
ssS'Greene County, Indiana'
p3011
(dp3012
g3
F39.0321796
sg4
F-86.9824288
ssS'Clark County, Ohio'
p3013
(dp3014
g3
F39.8912092
sg4
F-83.67739279999999
ssS'Comal County, Texas'
p3015
(dp3016
g3
F29.8105572
sg4
F-98.2212979
ssS'Divide County, North Dakota'
p3017
(dp3018
g3
F48.80561540000001
sg4
F-103.582951
ssS'Washington County, Arkansas'
p3019
(dp3020
g3
F35.9307703
sg4
F-94.15137639999999
ssS'Sumter County, Georgia'
p3021
(dp3022
g3
F31.9981596
sg4
F-84.2278796
ssS'Lynn County, Texas'
p3023
(dp3024
g3
F33.1446401
sg4
F-101.7979613
ssS'Jones County, Texas'
p3025
(dp3026
g3
F32.7833435
sg4
F-99.8124935
ssS'Wilcox County, Georgia'
p3027
(dp3028
g3
F31.9611759
sg4
F-83.46435509999999
ssS'Dunklin County, Missouri'
p3029
(dp3030
g3
F36.2364268
sg4
F-90.055447
ssS'Perry County, Mississippi'
p3031
(dp3032
g3
F31.1673115
sg4
F-89.0179332
ssS'Bastrop County, Texas'
p3033
(dp3034
g3
F30.0458708
sg4
F-97.35165579999999
ssS'Brantley County, Georgia'
p3035
(dp3036
g3
F31.1510963
sg4
F-81.9971108
ssS'Ada County, Idaho'
p3037
(dp3038
g3
F43.478767
sg4
F-116.2420304
ssS'Newton County, Missouri'
p3039
(dp3040
g3
F36.9618494
sg4
F-94.315422
ssS'Wilkes County, North Carolina'
p3041
(dp3042
g3
F36.202858
sg4
F-81.2518833
ssS'Ingham County, Michigan'
p3043
(dp3044
g3
F42.6468943
sg4
F-84.3542049
ssS'Lee County, South Carolina'
p3045
(dp3046
g3
F34.1630345
sg4
F-80.23213129999999
ssS'Orange County, New York'
p3047
(dp3048
g3
F41.3911653
sg4
F-74.3118212
ssS'Robertson County, Texas'
p3049
(dp3050
g3
F31.0080004
sg4
F-96.49297969999999
ssS'Glades County, Florida'
p3051
(dp3052
g3
F26.984415
sg4
F-81.0754657
ssS'Morrow County, Ohio'
p3053
(dp3054
g3
F40.5303751
sg4
F-82.8007993
ssS'Fayette County, Alabama'
p3055
(dp3056
g3
F33.6871392
sg4
F-87.77633329999999
ssS'St. Lucie County, Florida'
p3057
(dp3058
g3
F27.3225563
sg4
F-80.54384499999999
ssS'Indiana County, Pennsylvania'
p3059
(dp3060
g3
F40.6850762
sg4
F-79.1096901
ssS'Lamar County, Mississippi'
p3061
(dp3062
g3
F31.1699705
sg4
F-89.4742177
ssS'Lafayette County, Missouri'
p3063
(dp3064
g3
F39.0031288
sg4
F-93.9878427
ssS'Franklin County, Virginia'
p3065
(dp3066
g3
F36.9458815
sg4
F-79.8296743
ssS'Forest County, Pennsylvania'
p3067
(dp3068
g3
F41.53410119999999
sg4
F-79.24511489999999
ssS'Wayne County, Nebraska'
p3069
(dp3070
g3
F42.2479453
sg4
F-97.179026
ssS'Maui County, Hawaii'
p3071
(dp3072
g3
F20.7983626
sg4
F-156.3319253
ssS'Camp County, Texas'
p3073
(dp3074
g3
F32.9567043
sg4
F-94.99744609999999
ssS'Newaygo County, Michigan'
p3075
(dp3076
g3
F43.55935820000001
sg4
F-85.76666449999999
ssS'Lawrence County, Illinois'
p3077
(dp3078
g3
F38.7157534
sg4
F-87.77633329999999
ssS'Holmes County, Ohio'
p3079
(dp3080
g3
F40.5540928
sg4
F-81.909826
ssS'Calcasieu Parish, Louisiana'
p3081
(dp3082
g3
F30.2089286
sg4
F-93.33889169999999
ssS'Jersey County, Illinois'
p3083
(dp3084
g3
F39.0704754
sg4
F-90.37483540000001
ssS'Somerset County, Maryland'
p3085
(dp3086
g3
F38.0862333
sg4
F-75.8533954
ssS'Talbot County, Georgia'
p3087
(dp3088
g3
F32.6891322
sg4
F-84.5222189
ssS'DeWitt County, Texas'
p3089
(dp3090
g3
F29.1235194
sg4
F-97.35165579999999
ssS'Bailey County, Texas'
p3091
(dp3092
g3
F34.0913057
sg4
F-102.8975098
ssS'Lancaster County, Virginia'
p3093
(dp3094
g3
F37.7475945
sg4
F-76.5025742
ssS'Sumner County, Tennessee'
p3095
(dp3096
g3
F36.4718084
sg4
F-86.49965460000001
ssS'Dot Lake ANV/ANVSA, Alaska'
p3097
(dp3098
g3
Nsg4
NssS'Atchison County, Kansas'
p3099
(dp3100
g3
F39.5701137
sg4
F-95.35208759999999
ssS'Spencer County, Kentucky'
p3101
(dp3102
g3
F38.0123167
sg4
F-85.31362179999999
ssS'Martin County, North Carolina'
p3103
(dp3104
g3
F35.8733053
sg4
F-77.1485163
ssS'Jeff Davis County, Texas'
p3105
(dp3106
g3
F30.750805
sg4
F-104.1930918
ssS'Sullivan County, Pennsylvania'
p3107
(dp3108
g3
F41.4781004
sg4
F-76.5025742
ssS'Hamilton County, Florida'
p3109
(dp3110
g3
F30.47559579999999
sg4
F-82.95015579999999
ssS'Rockingham County, New Hampshire'
p3111
(dp3112
g3
F42.9931261
sg4
F-71.0497768
ssS'Leslie County, Kentucky'
p3113
(dp3114
g3
F37.0698286
sg4
F-83.3789389
ssS'George County, Mississippi'
p3115
(dp3116
g3
F30.8431226
sg4
F-88.6723578
ssS'Fulton County, Kentucky'
p3117
(dp3118
g3
F36.5630482
sg4
F-89.1324866
ssS'Archer County, Texas'
p3119
(dp3120
g3
F33.5761511
sg4
F-98.7481167
ssS'Massac County, Illinois'
p3121
(dp3122
g3
F37.2478298
sg4
F-88.7493998
ssS'Thayer County, Nebraska'
p3123
(dp3124
g3
F40.1460895
sg4
F-97.5247243
ssS'Coffee County, Tennessee'
p3125
(dp3126
g3
F35.4576849
sg4
F-86.05296039999999
ssS'Chester County, Pennsylvania'
p3127
(dp3128
g3
F40.0010204
sg4
F-75.8069082
ssS'Logan County, Arkansas'
p3129
(dp3130
g3
F35.2475011
sg4
F-93.66232389999999
ssS'Woodford County, Illinois'
p3131
(dp3132
g3
F40.7128889
sg4
F-89.1705998
ssS'St. Francis County, Arkansas'
p3133
(dp3134
g3
F34.9926533
sg4
F-90.7152749
ssS'Yellowstone County, Montana'
p3135
(dp3136
g3
F45.78565769999999
sg4
F-108.4343805
ssS'Deaf Smith County, Texas'
p3137
(dp3138
g3
F35.0017354
sg4
F-102.5298028
ssS'Baca County, Colorado'
p3139
(dp3140
g3
F37.394731
sg4
F-102.5298028
ssS'Johnson County, Georgia'
p3141
(dp3142
g3
F32.7308194
sg4
F-82.6915429
ssS'Wayne County, North Carolina'
p3143
(dp3144
g3
F35.3565499
sg4
F-77.973865
ssS'Columbiana County, Ohio'
p3145
(dp3146
g3
F40.7902581
sg4
F-80.7657804
ssS'Columbia County, Georgia'
p3147
(dp3148
g3
F33.5098514
sg4
F-82.25832969999999
ssS'Iredell County, North Carolina'
p3149
(dp3150
g3
F35.8310501
sg4
F-80.89865019999999
ssS'Accomack County, Virginia'
p3151
(dp3152
g3
F37.7063323
sg4
F-75.8069082
ssS'Oglethorpe County, Georgia'
p3153
(dp3154
g3
F33.9119731
sg4
F-83.03613759999999
ssS'Echols County, Georgia'
p3155
(dp3156
g3
F30.7503289
sg4
F-82.95015579999999
ssS'Jefferson Davis County, Mississippi'
p3157
(dp3158
g3
F31.58252809999999
sg4
F-89.81303559999999
ssS'Belmont County, Ohio'
p3159
(dp3160
g3
F40.0325848
sg4
F-80.89865019999999
ssS'Caroline County, Maryland'
p3161
(dp3162
g3
F38.9105018
sg4
F-75.8533954
ssS'Gogebic County, Michigan'
p3163
(dp3164
g3
F46.4392785
sg4
F-89.92147399999999
ssS'Cuming County, Nebraska'
p3165
(dp3166
g3
F41.95401529999999
sg4
F-96.83509989999999
ssS'Forest County, Wisconsin'
p3167
(dp3168
g3
F45.6704497
sg4
F-88.83758069999999
ssS'Barbour County, West Virginia'
p3169
(dp3170
g3
F39.1398692
sg4
F-80.0087746
ssS'Thurston County, Nebraska'
p3171
(dp3172
g3
F42.1685528
sg4
F-96.5356449
ssS'Cleburne County, Arkansas'
p3173
(dp3174
g3
F35.4605769
sg4
F-92.0665197
ssS'Poquoson city, Virginia'
p3175
(dp3176
g3
F37.1223664
sg4
F-76.3457773
ssS'Carver County, Minnesota'
p3177
(dp3178
g3
F44.82543099999999
sg4
F-93.7841503
ssS'Lapeer County, Michigan'
p3179
(dp3180
g3
F43.0482433
sg4
F-83.1649001
ssS'Genesee County, New York'
p3181
(dp3182
g3
F42.9837843
sg4
F-78.1564432
ssS'Jones County, Iowa'
p3183
(dp3184
g3
F42.1516737
sg4
F-91.13530200000001
ssS'Scott County, Kentucky'
p3185
(dp3186
g3
F38.3172361
sg4
F-84.56414699999999
ssS'Pueblo County, Colorado'
p3187
(dp3188
g3
F38.2528534
sg4
F-104.4723301
ssS'Rockingham County, North Carolina'
p3189
(dp3190
g3
F36.4335041
sg4
F-79.8296743
ssS'Linn County, Kansas'
p3191
(dp3192
g3
F38.1339574
sg4
F-94.81059549999999
ssS'Vigo County, Indiana'
p3193
(dp3194
g3
F39.4165382
sg4
F-87.42075179999999
ssS'Monroe County, Florida'
p3195
(dp3196
g3
F24.5557001
sg4
F-81.78259849999999
ssS'Alpena County, Michigan'
p3197
(dp3198
g3
F45.0317209
sg4
F-83.54054119999999
ssS'Latah County, Idaho'
p3199
(dp3200
g3
F46.7360364
sg4
F-116.6764195
ssS'Burnet County, Texas'
p3201
(dp3202
g3
F30.7270349
sg4
F-98.2212979
ssS'Bullitt County, Kentucky'
p3203
(dp3204
g3
F37.9842107
sg4
F-85.684578
ssS'Garland County, Arkansas'
p3205
(dp3206
g3
F34.5559285
sg4
F-93.17796589999999
ssS'Dallas County, Alabama'
p3207
(dp3208
g3
F32.2332138
sg4
F-87.14228949999999
ssS'Lubbock County, Texas'
p3209
(dp3210
g3
F33.6753624
sg4
F-101.7979613
ssS'Montgomery County, Virginia'
p3211
(dp3212
g3
F37.2070304
sg4
F-80.4103957
ssS'Robeson County, North Carolina'
p3213
(dp3214
g3
F34.6383858
sg4
F-79.1096901
ssS'Clark County, Illinois'
p3215
(dp3216
g3
F39.3824189
sg4
F-87.77633329999999
ssS'Wakulla County, Florida'
p3217
(dp3218
g3
F30.1301689
sg4
F-84.3542049
ssS'Knox County, Illinois'
p3219
(dp3220
g3
F40.8776411
sg4
F-90.2244662
ssS'Barrow County, Georgia'
p3221
(dp3222
g3
F34.0142667
sg4
F-83.6986568
ssS'Rhea County, Tennessee'
p3223
(dp3224
g3
F35.5927914
sg4
F-84.981754
ssS'Caldwell County, Texas'
p3225
(dp3226
g3
F29.8849106
sg4
F-97.6699144
ssS'St. Clair County, Illinois'
p3227
(dp3228
g3
F38.40081199999999
sg4
F-89.9253233
ssS'Pondera County, Montana'
p3229
(dp3230
g3
F48.2321517
sg4
F-112.2886317
ssS'Hardin County, Texas'
p3231
(dp3232
g3
F30.364764
sg4
F-94.315422
ssS'Upton County, Texas'
p3233
(dp3234
g3
F31.33848429999999
sg4
F-101.9804613
ssS'Greene County, Georgia'
p3235
(dp3236
g3
F33.5186591
sg4
F-83.1649001
ssS'Hamblen County, Tennessee'
p3237
(dp3238
g3
F36.2054334
sg4
F-83.2934086
ssS'Gillespie County, Texas'
p3239
(dp3240
g3
F30.31499299999999
sg4
F-98.92453429999999
ssS'Clark County, Arkansas'
p3241
(dp3242
g3
F34.0232374
sg4
F-93.17796589999999
ssS'Bath County, Virginia'
p3243
(dp3244
g3
F38.111733
sg4
F-79.6502105
ssS'Kalkaska County, Michigan'
p3245
(dp3246
g3
F44.66744449999999
sg4
F-85.02334599999999
ssS'Albemarle County, Virginia'
p3247
(dp3248
g3
F38.0567092
sg4
F-78.6114999
ssS'Webster Parish, Louisiana'
p3249
(dp3250
g3
F32.7641355
sg4
F-93.33889169999999
ssS'Winkler County, Texas'
p3251
(dp3252
g3
F31.76846
sg4
F-103.0817903
ssS'Perry County, Kentucky'
p3253
(dp3254
g3
F37.3160706
sg4
F-83.2077645
ssS'Richmond County, Virginia'
p3255
(dp3256
g3
F37.9175609
sg4
F-76.7105632
ssS'Whiteside County, Illinois'
p3257
(dp3258
g3
F41.7605503
sg4
F-89.8505012
ssS'Cross County, Arkansas'
p3259
(dp3260
g3
F35.2998913
sg4
F-90.8294002
ssS'Osceola County, Iowa'
p3261
(dp3262
g3
F43.3851953
sg4
F-95.6037465
ssS'Floyd County, Iowa'
p3263
(dp3264
g3
F43.0615947
sg4
F-92.8577105
ssS'Turner County, Georgia'
p3265
(dp3266
g3
F31.6976531
sg4
F-83.63484299999999
ssS'Ramsey County, North Dakota'
p3267
(dp3268
g3
F48.3076017
sg4
F-98.7287191
ssS'Bedford County, Virginia'
p3269
(dp3270
g3
F37.2538794
sg4
F-79.4703885
ssS'Green Lake County, Wisconsin'
p3271
(dp3272
g3
F43.863117
sg4
F-89.0179332
ssS'Brown County, Texas'
p3273
(dp3274
g3
F31.7705105
sg4
F-98.92453429999999
ssS'Lorain County, Ohio'
p3275
(dp3276
g3
F41.4116881
sg4
F-82.12783999999999
ssS'Knox County, Ohio'
p3277
(dp3278
g3
F40.459564
sg4
F-82.3017728
ssS'Weber County, Utah'
p3279
(dp3280
g3
F41.2602635
sg4
F-111.9522491
ssS'Union County, Iowa'
p3281
(dp3282
g3
F41.0006855
sg4
F-94.27436279999999
ssS'Nolan County, Texas'
p3283
(dp3284
g3
F32.3818737
sg4
F-100.3497895
ssS'Charlotte County, Florida'
p3285
(dp3286
g3
F26.8946009
sg4
F-81.909826
ssS'San Benito County, California'
p3287
(dp3288
g3
F36.5760883
sg4
F-120.9876321
ssS'Sumter County, Alabama'
p3289
(dp3290
g3
F32.6155551
sg4
F-88.24611829999999
ssS'Warren County, Iowa'
p3291
(dp3292
g3
F41.30805489999999
sg4
F-93.5003454
ssS'Lycoming County, Pennsylvania'
p3293
(dp3294
g3
F41.2720004
sg4
F-77.10249019999999
ssS'Marshall County, Illinois'
p3295
(dp3296
g3
F40.9972934
sg4
F-89.3606298
ssS'Rock Island County, Illinois'
p3297
(dp3298
g3
F41.39982089999999
sg4
F-90.563609
ssS'Chelan County, Washington'
p3299
(dp3300
g3
F47.9445331
sg4
F-120.6749068
ssS'Shasta County, California'
p3301
(dp3302
g3
F40.7908864
sg4
F-121.8474493
ssS'Cowlitz County, Washington'
p3303
(dp3304
g3
F46.1746472
sg4
F-122.7746902
ssS'Nicollet County, Minnesota'
p3305
(dp3306
g3
F44.3572855
sg4
F-94.27436279999999
ssS'Miller County, Georgia'
p3307
(dp3308
g3
F31.2008218
sg4
F-84.7315563
ssS'Throckmorton County, Texas'
p3309
(dp3310
g3
F33.1814565
sg4
F-99.2785583
ssS'Sioux County, North Dakota'
p3311
(dp3312
g3
F46.0512004
sg4
F-101.1175392
ssS'Kalamazoo County, Michigan'
p3313
(dp3314
g3
F42.2278346
sg4
F-85.52002399999999
ssS'Wayne County, Indiana'
p3315
(dp3316
g3
F39.831882
sg4
F-84.981754
ssS'Franklin County, North Carolina'
p3317
(dp3318
g3
F36.0741417
sg4
F-78.2426748
ssS'Mower County, Minnesota'
p3319
(dp3320
g3
F43.6824988
sg4
F-92.6983868
ssS'Webster County, Mississippi'
p3321
(dp3322
g3
F33.5707456
sg4
F-89.28472510000002
ssS'Clinch County, Georgia'
p3323
(dp3324
g3
F30.9716985
sg4
F-82.82097399999999
ssS'Columbia County, Pennsylvania'
p3325
(dp3326
g3
F41.0274439
sg4
F-76.3637285
ssS'Bucks County, Pennsylvania'
p3327
(dp3328
g3
F40.4107964
sg4
F-75.2479061
ssS'Emanuel County, Georgia'
p3329
(dp3330
g3
F32.5726629
sg4
F-82.3017728
ssS'Lumpkin County, Georgia'
p3331
(dp3332
g3
F34.5813972
sg4
F-83.9744262
ssS'Latimer County, Oklahoma'
p3333
(dp3334
g3
F34.835035
sg4
F-95.3102505
ssS'Oconto County, Wisconsin'
p3335
(dp3336
g3
F44.8332991
sg4
F-88.0118473
ssS'Dukes County, Massachusetts'
p3337
(dp3338
g3
F41.4039539
sg4
F-70.6692655
ssS'Isabella County, Michigan'
p3339
(dp3340
g3
F43.598799
sg4
F-84.8567932
ssS'Stark County, Ohio'
p3341
(dp3342
g3
F40.8684676
sg4
F-81.2518833
ssS'Dooly County, Georgia'
p3343
(dp3344
g3
F32.1593447
sg4
F-83.804868
ssS'Cass County, Illinois'
p3345
(dp3346
g3
F39.9398601
sg4
F-90.26200419999999
ssS'Powder River County, Montana'
p3347
(dp3348
g3
F45.2968361
sg4
F-105.5346557
ssS'Grant County, Oregon'
p3349
(dp3350
g3
F44.4384077
sg4
F-118.8917326
ssS'Columbus County, North Carolina'
p3351
(dp3352
g3
F34.2548658
sg4
F-78.74762079999999
ssS'Baker County, Georgia'
p3353
(dp3354
g3
F31.2816037
sg4
F-84.4802606
ssS'Chenango County, New York'
p3355
(dp3356
g3
F42.4972314
sg4
F-75.62080879999999
ssS'Adams County, Illinois'
p3357
(dp3358
g3
F40.0577692
sg4
F-91.13530200000001
ssS'Dunn County, Wisconsin'
p3359
(dp3360
g3
F44.909416
sg4
F-91.9099238
ssS'Jefferson County, Tennessee'
p3361
(dp3362
g3
F36.0417825
sg4
F-83.46435509999999
ssS'San Diego County, California'
p3363
(dp3364
g3
F32.7157305
sg4
F-117.1610966
ssS'Burlington County, New Jersey'
p3365
(dp3366
g3
F39.8558488
sg4
F-74.6868815
ssS'Shelby County, Alabama'
p3367
(dp3368
g3
F33.3039292
sg4
F-86.6611083
ssS'Hayes County, Nebraska'
p3369
(dp3370
g3
F40.5070797
sg4
F-101.0711758
ssS'Harrison County, Indiana'
p3371
(dp3372
g3
F38.1701136
sg4
F-86.17517590000001
ssS'Newton County, Mississippi'
p3373
(dp3374
g3
F32.4440058
sg4
F-89.1705998
ssS'Warren County, Mississippi'
p3375
(dp3376
g3
F32.3989469
sg4
F-90.7913227
ssS'Clayton County, Georgia'
p3377
(dp3378
g3
F33.5571944
sg4
F-84.375233
ssS'Edgecombe County, North Carolina'
p3379
(dp3380
g3
F35.8840053
sg4
F-77.6536125
ssS'Laurel County, Kentucky'
p3381
(dp3382
g3
F37.0693489
sg4
F-84.1857115
ssS'Lavaca County, Texas'
p3383
(dp3384
g3
F29.33590539999999
sg4
F-96.83509989999999
ssS'Garfield County, Washington'
p3385
(dp3386
g3
F46.5185629
sg4
F-117.5276611
ssS'Allen County, Kansas'
p3387
(dp3388
g3
F37.9435853
sg4
F-95.3102505
ssS'Custer County, Montana'
p3389
(dp3390
g3
F46.2160876
sg4
F-105.6225
ssS'Adair County, Kentucky'
p3391
(dp3392
g3
F37.076403
sg4
F-85.31362179999999
ssS'Grant County, Washington'
p3393
(dp3394
g3
F47.1981147
sg4
F-119.3732456
ssS'Lincoln County, West Virginia'
p3395
(dp3396
g3
F38.1761009
sg4
F-82.08429009999999
ssS'Petroleum County, Montana'
p3397
(dp3398
g3
F47.1565346
sg4
F-108.3203282
ssS'Lamar County, Texas'
p3399
(dp3400
g3
F33.75694
sg4
F-95.6457951
ssS'Upshur County, Texas'
p3401
(dp3402
g3
F32.7099747
sg4
F-94.976654
ssS'Marin County, California'
p3403
(dp3404
g3
F38.083403
sg4
F-122.7633036
ssS'Williamson County, Illinois'
p3405
(dp3406
g3
F37.7183241
sg4
F-88.86469799999999
ssS'Oktibbeha County, Mississippi'
p3407
(dp3408
g3
F33.3886689
sg4
F-88.90306
ssS'Sussex County, New Jersey'
p3409
(dp3410
g3
F41.1288481
sg4
F-74.6868815
ssS'Montague County, Texas'
p3411
(dp3412
g3
F33.6460993
sg4
F-97.69822719999999
ssS'King and Queen County, Virginia'
p3413
(dp3414
g3
F37.7298568
sg4
F-76.8951551
ssS'Hardin County, Kentucky'
p3415
(dp3416
g3
F37.6565708
sg4
F-86.0121573
ssS'Simpson County, Mississippi'
p3417
(dp3418
g3
F31.9017736
sg4
F-89.9253233
ssS'Perry County, Indiana'
p3419
(dp3420
g3
F38.0159043
sg4
F-86.6611083
ssS'Harrison County, Kentucky'
p3421
(dp3422
g3
F38.4333045
sg4
F-84.3542049
ssS'Keokuk County, Iowa'
p3423
(dp3424
g3
F41.3397063
sg4
F-92.2236667
ssS'Mercer County, West Virginia'
p3425
(dp3426
g3
F37.4322638
sg4
F-81.1196075
ssS'Walton County, Georgia'
p3427
(dp3428
g3
F33.7708613
sg4
F-83.7199136
ssS'St. Clair County, Michigan'
p3429
(dp3430
g3
F43.016179
sg4
F-82.6483442
ssS'Cerro Gordo County, Iowa'
p3431
(dp3432
g3
F43.1543186
sg4
F-93.20296750000001
ssS'Providence County, Rhode Island'
p3433
(dp3434
g3
F41.8881582
sg4
F-71.4774291
ssS'Prince Edward County, Virginia'
p3435
(dp3436
g3
F37.1982888
sg4
F-78.4297187
ssS'Randall County, Texas'
p3437
(dp3438
g3
F34.9020377
sg4
F-101.7979613
ssS'Gem County, Idaho'
p3439
(dp3440
g3
F44.0324936
sg4
F-116.3589245
ssS'Tipton County, Indiana'
p3441
(dp3442
g3
F40.2825661
sg4
F-86.05296039999999
ssS'Jefferson County, Arkansas'
p3443
(dp3444
g3
F34.227351
sg4
F-91.9099238
ssS'Hemphill County, Texas'
p3445
(dp3446
g3
F35.9022267
sg4
F-100.3497895
ssS'Charlotte County, Virginia'
p3447
(dp3448
g3
F37.0467412
sg4
F-78.6114999
ssS'Macon County, Georgia'
p3449
(dp3450
g3
F32.3523607
sg4
F-84.05902900000001
ssS'Harford County, Maryland'
p3451
(dp3452
g3
F39.5838964
sg4
F-76.3637285
ssS'Harper County, Kansas'
p3453
(dp3454
g3
F37.1096002
sg4
F-98.04651849999999
ssS'Erie County, New York'
p3455
(dp3456
g3
F42.9023958
sg4
F-78.8661589
ssS'Teton County, Montana'
p3457
(dp3458
g3
F47.90199459999999
sg4
F-112.2717561
ssS'Marquette County, Wisconsin'
p3459
(dp3460
g3
F43.865322
sg4
F-89.3226954
ssS'Tippah County, Mississippi'
p3461
(dp3462
g3
F34.76880970000001
sg4
F-88.86469799999999
ssS'Prince William County, Virginia'
p3463
(dp3464
g3
F38.7838939
sg4
F-77.6077865
ssS'West Feliciana Parish, Louisiana'
p3465
(dp3466
g3
F30.8423123
sg4
F-91.4048249
ssS'Yamhill County, Oregon'
p3467
(dp3468
g3
F45.1771983
sg4
F-123.2395303
ssS'Pierce County, Wisconsin'
p3469
(dp3470
g3
F44.7508921
sg4
F-92.38136209999999
ssS'Bedford County, Pennsylvania'
p3471
(dp3472
g3
F39.98695499999999
sg4
F-78.5660852
ssS'San Miguel County, New Mexico'
p3473
(dp3474
g3
F35.5117793
sg4
F-104.8454619
ssS'DeKalb County, Georgia'
p3475
(dp3476
g3
F33.7956441
sg4
F-84.2278796
ssS'Parke County, Indiana'
p3477
(dp3478
g3
F39.69929459999999
sg4
F-87.14228949999999
ssS'Tanana ANV/ANVSA, Alaska'
p3479
(dp3480
g3
Nsg4
NssS'Bradley County, Arkansas'
p3481
(dp3482
g3
F33.5081368
sg4
F-92.2236667
ssS'Southeast Fairbanks Census Area, Alaska'
p3483
(dp3484
g3
F63.9603869
sg4
F-143.6296998
ssS'Archuleta County, Colorado'
p3485
(dp3486
g3
F37.1604318
sg4
F-107.0067031
ssS'Newton County, Indiana'
p3487
(dp3488
g3
F40.9703076
sg4
F-87.42075179999999
ssS'Lincoln County, Mississippi'
p3489
(dp3490
g3
F31.5359248
sg4
F-90.52578229999999
ssS'Waushara County, Wisconsin'
p3491
(dp3492
g3
F44.1313128
sg4
F-89.20867729999999
ssS'Pima County, Arizona'
p3493
(dp3494
g3
F32.057499
sg4
F-111.6660725
ssS'Plymouth County, Massachusetts'
p3495
(dp3496
g3
F41.9120406
sg4
F-70.7168469
ssS'San Saba County, Texas'
p3497
(dp3498
g3
F31.238909
sg4
F-98.7481167
ssS'Daggett County, Utah'
p3499
(dp3500
g3
F40.9053845
sg4
F-109.5211063
ssS'Lenoir County, North Carolina'
p3501
(dp3502
g3
F35.2326725
sg4
F-77.6077865
ssS'Sheboygan County, Wisconsin'
p3503
(dp3504
g3
F43.7173595
sg4
F-87.9284802
ssS'Columbia County, Arkansas'
p3505
(dp3506
g3
F33.1285176
sg4
F-93.17796589999999
ssS'Pike County, Kentucky'
p3507
(dp3508
g3
F37.4842087
sg4
F-82.4752757
ssS'Towner County, North Dakota'
p3509
(dp3510
g3
F48.7485974
sg4
F-99.2761104
ssS'Iosco County, Michigan'
p3511
(dp3512
g3
F44.3340462
sg4
F-83.63862259999999
ssS'Lake County, Tennessee'
p3513
(dp3514
g3
F36.3270676
sg4
F-89.49311759999999
ssS'Putnam County, New York'
p3515
(dp3516
g3
F41.4351069
sg4
F-73.7948516
ssS'Zapata County, Texas'
p3517
(dp3518
g3
F26.9730763
sg4
F-99.1013498
ssS'Buffalo County, Wisconsin'
p3519
(dp3520
g3
F44.3102354
sg4
F-91.7538817
ssS'Manatee County, Florida'
p3521
(dp3522
g3
F27.4799195
sg4
F-82.34518899999999
ssS'Elkhart County, Indiana'
p3523
(dp3524
g3
F41.6062253
sg4
F-85.84862360000001
ssS'Rabun County, Georgia'
p3525
(dp3526
g3
F34.9027286
sg4
F-83.3789389
ssS'Rock County, Wisconsin'
p3527
(dp3528
g3
F42.6251506
sg4
F-89.0179332
ssS'Floyd County, Georgia'
p3529
(dp3530
g3
F34.2828967
sg4
F-85.2308414
ssS'Jefferson County, Texas'
p3531
(dp3532
g3
F29.8165398
sg4
F-94.15137639999999
ssS'Ute Mountain Indian Reservation Also NM, Colorado'
p3533
(dp3534
g3
F37.2004812
sg4
F-108.7310793
ssS'Door County, Wisconsin'
p3535
(dp3536
g3
F44.8341302
sg4
F-87.3770488
ssS'Dale County, Alabama'
p3537
(dp3538
g3
F31.4645298
sg4
F-85.684578
ssS'Craig County, Oklahoma'
p3539
(dp3540
g3
F36.7571907
sg4
F-95.1432068
ssS'Las Animas County, Colorado'
p3541
(dp3542
g3
F37.2994909
sg4
F-104.1001326
ssS'Dubuque County, Iowa'
p3543
(dp3544
g3
F42.4694679
sg4
F-90.8294002
ssS'Ashland County, Ohio'
p3545
(dp3546
g3
F40.9435588
sg4
F-82.3017728
ssS'Asotin County, Washington'
p3547
(dp3548
g3
F46.1460123
sg4
F-117.2085208
ssS'Wood County, Ohio'
p3549
(dp3550
g3
F41.34784579999999
sg4
F-83.67739279999999
ssS'Breathitt County, Kentucky'
p3551
(dp3552
g3
F37.5359616
sg4
F-83.33618799999999
ssS'Jennings County, Indiana'
p3553
(dp3554
g3
F38.9914998
sg4
F-85.684578
ssS'Northumberland County, Pennsylvania'
p3555
(dp3556
g3
F40.86743389999999
sg4
F-76.6874701
ssS'Belknap County, New Hampshire'
p3557
(dp3558
g3
F43.5024246
sg4
F-71.4073938
ssS'Delta County, Texas'
p3559
(dp3560
g3
F33.3493128
sg4
F-95.77212039999999
ssS'Catron County, New Mexico'
p3561
(dp3562
g3
F34.1515173
sg4
F-108.4276047
ssS'Waukesha County, Wisconsin'
p3563
(dp3564
g3
F43.0072599
sg4
F-88.32393090000001
ssS'Mitchell County, Georgia'
p3565
(dp3566
g3
F31.2230067
sg4
F-84.1857115
ssS'Cherokee County, South Carolina'
p3567
(dp3568
g3
F35.0120404
sg4
F-81.6035062
ssS'Rensselaer County, New York'
p3569
(dp3570
g3
F42.673664
sg4
F-73.55941279999999
ssS'San Bernardino County, California'
p3571
(dp3572
g3
F34.9592083
sg4
F-116.419389
ssS'Floyd County, Indiana'
p3573
(dp3574
g3
F38.2869276
sg4
F-85.8895551
ssS'Howard County, Texas'
p3575
(dp3576
g3
F32.2875944
sg4
F-101.4339148
ssS'Fulton County, New York'
p3577
(dp3578
g3
F43.1118737
sg4
F-74.4994517
ssS'Etowah County, Alabama'
p3579
(dp3580
g3
F34.0455341
sg4
F-86.05296039999999
ssS'Wasco County, Oregon'
p3581
(dp3582
g3
F45.0600051
sg4
F-121.2375121
ssS'Stephens County, Oklahoma'
p3583
(dp3584
g3
F34.5203466
sg4
F-97.87216
ssS'Hall County, Texas'
p3585
(dp3586
g3
F34.4793521
sg4
F-100.7097867
ssS'Garrett County, Maryland'
p3587
(dp3588
g3
F39.5681243
sg4
F-79.29021329999999
ssS'Otero County, New Mexico'
p3589
(dp3590
g3
F32.6341716
sg4
F-105.5943388
ssS'Washington County, Idaho'
p3591
(dp3592
g3
F44.3658715
sg4
F-116.7548607
ssS'Kosciusko County, Indiana'
p3593
(dp3594
g3
F41.2864679
sg4
F-85.84862360000001
ssS'Van Buren County, Arkansas'
p3595
(dp3596
g3
F35.6266232
sg4
F-92.539603
ssS'Calaveras County, California'
p3597
(dp3598
g3
F38.1960477
sg4
F-120.6805037
ssS'Charlton County, Georgia'
p3599
(dp3600
g3
F30.7917361
sg4
F-82.08429009999999
ssS'Craighead County, Arkansas'
p3601
(dp3602
g3
F35.8260959
sg4
F-90.6773046
ssS'Pike County, Georgia'
p3603
(dp3604
g3
F33.0881873
sg4
F-84.3962535
ssS'Hancock County, Ohio'
p3605
(dp3606
g3
F41.0273131
sg4
F-83.67739279999999
ssS'Bracken County, Kentucky'
p3607
(dp3608
g3
F38.7117016
sg4
F-84.05902900000001
ssS'Branch County, Michigan'
p3609
(dp3610
g3
F41.8913835
sg4
F-85.02334599999999
ssS'Owsley County, Kentucky'
p3611
(dp3612
g3
F37.4294933
sg4
F-83.7199136
ssS'Coshocton County, Ohio'
p3613
(dp3614
g3
F40.27358230000001
sg4
F-81.9534815
ssS'Moore County, North Carolina'
p3615
(dp3616
g3
F35.3674493
sg4
F-79.4703885
ssS'Travis County, Texas'
p3617
(dp3618
g3
F30.2097015
sg4
F-97.69822719999999
ssS'Westmoreland County, Pennsylvania'
p3619
(dp3620
g3
F40.2353963
sg4
F-79.4703885
ssS'Pike County, Ohio'
p3621
(dp3622
g3
F39.0713471
sg4
F-83.03613759999999
ssS'Ashe County, North Carolina'
p3623
(dp3624
g3
F36.4339674
sg4
F-81.47183869999999
ssS'LaGrange County, Indiana'
p3625
(dp3626
g3
F41.62887020000001
sg4
F-85.39627689999999
ssS'Merrick County, Nebraska'
p3627
(dp3628
g3
F41.2031926
sg4
F-98.0028892
ssS'Ida County, Iowa'
p3629
(dp3630
g3
F42.3418685
sg4
F-95.4777811
ssS'Bourbon County, Kansas'
p3631
(dp3632
g3
F37.7957092
sg4
F-94.81059549999999
ssS'Tioga County, New York'
p3633
(dp3634
g3
F42.1256317
sg4
F-76.3637285
ssS'Eau Claire County, Wisconsin'
p3635
(dp3636
g3
F44.7683909
sg4
F-91.28910359999999
ssS'Guilford County, North Carolina'
p3637
(dp3638
g3
F36.0899873
sg4
F-79.8296743
ssS'Woodward County, Oklahoma'
p3639
(dp3640
g3
F36.413792
sg4
F-99.3673084
ssS'Los Angeles County, California'
p3641
(dp3642
g3
F34.0522265
sg4
F-118.2436596
ssS'Lowndes County, Mississippi'
p3643
(dp3644
g3
F33.473423
sg4
F-88.4403883
ssS'Lebanon County, Pennsylvania'
p3645
(dp3646
g3
F40.3666686
sg4
F-76.5025742
ssS'Washington County, Kansas'
p3647
(dp3648
g3
F39.8413319
sg4
F-97.179026
ssS'Champaign County, Ohio'
p3649
(dp3650
g3
F40.10258169999999
sg4
F-83.804868
ssS'Pike County, Illinois'
p3651
(dp3652
g3
F39.5662363
sg4
F-90.8294002
ssS'Humboldt County, Iowa'
p3653
(dp3654
g3
F42.7482597
sg4
F-94.19234000000002
ssS'Fredericksburg city, Virginia'
p3655
(dp3656
g3
F38.3031837
sg4
F-77.4605399
ssS'Jefferson County, Mississippi'
p3657
(dp3658
g3
F31.7157817
sg4
F-90.9820668
ssS'White County, Arkansas'
p3659
(dp3660
g3
F35.2900612
sg4
F-91.7538817
ssS'Taos County, New Mexico'
p3661
(dp3662
g3
F36.4358718
sg4
F-105.5943388
ssS'Monterey County, California'
p3663
(dp3664
g3
F36.3136201
sg4
F-121.3541631
ssS'Thomas County, Georgia'
p3665
(dp3666
g3
F30.8417409
sg4
F-83.8473015
ssS'Fairfield County, Ohio'
p3667
(dp3668
g3
F39.830506
sg4
F-82.6483442
ssS'Jones County, Georgia'
p3669
(dp3670
g3
F33.0002582
sg4
F-83.5070203
ssS'Brazos County, Texas'
p3671
(dp3672
g3
F30.6504141
sg4
F-96.3226072
ssS'Fall River County, South Dakota'
p3673
(dp3674
g3
F43.2240279
sg4
F-103.4511768
ssS'Hampden County, Massachusetts'
p3675
(dp3676
g3
F42.1172314
sg4
F-72.6624209
ssS'Madison County, New York'
p3677
(dp3678
g3
F42.98059749999999
sg4
F-75.8069082
ssS'Torrance County, New Mexico'
p3679
(dp3680
g3
F34.6784317
sg4
F-105.9699878
ssS'James City County, Virginia'
p3681
(dp3682
g3
F37.3002132
sg4
F-76.8028933
ssS'Cabarrus County, North Carolina'
p3683
(dp3684
g3
F35.4168123
sg4
F-80.5882803
ssS'Ocean County, New Jersey'
p3685
(dp3686
g3
F39.9652553
sg4
F-74.3118212
ssS'DeSoto County, Florida'
p3687
(dp3688
g3
F27.2142078
sg4
F-81.77870209999999
ssS'Edwards County, Texas'
p3689
(dp3690
g3
F29.9282955
sg4
F-100.439656
ssS'Jackson County, Oregon'
p3691
(dp3692
g3
F42.334535
sg4
F-122.7646577
ssS'Harrison County, Iowa'
p3693
(dp3694
g3
F41.6933855
sg4
F-95.81428849999999
ssS'Lewis County, New York'
p3695
(dp3696
g3
F43.840112
sg4
F-75.4344727
ssS'Bear Lake County, Idaho'
p3697
(dp3698
g3
F42.228222
sg4
F-111.2845025
ssS'Coles County, Illinois'
p3699
(dp3700
g3
F39.5560011
sg4
F-88.24611829999999
ssS'York County, Maine'
p3701
(dp3702
g3
F43.4132697
sg4
F-70.6702521
ssS'Henry County, Illinois'
p3703
(dp3704
g3
F41.361088
sg4
F-90.0746767
ssS'Franklin County, Maine'
p3705
(dp3706
g3
F45.0386059
sg4
F-70.3979538
ssS'Sutton County, Texas'
p3707
(dp3708
g3
F30.5598827
sg4
F-100.5296115
ssS'Flagler County, Florida'
p3709
(dp3710
g3
F29.4086072
sg4
F-81.2518833
ssS'Alcona County, Michigan'
p3711
(dp3712
g3
F44.6727944
sg4
F-83.60223979999999
ssS'Pepin County, Wisconsin'
p3713
(dp3714
g3
F44.6451183
sg4
F-92.02731899999999
ssS'Sedgwick County, Kansas'
p3715
(dp3716
g3
F37.6537367
sg4
F-97.5247243
ssS'Crowley County, Colorado'
p3717
(dp3718
g3
F38.2498631
sg4
F-103.8216261
ssS'Pottawatomie County, Kansas'
p3719
(dp3720
g3
F39.3976344
sg4
F-96.3226072
ssS'De Baca County, New Mexico'
p3721
(dp3722
g3
F34.2734196
sg4
F-104.3791912
ssS'Arkansas County, Arkansas'
p3723
(dp3724
g3
F34.2354138
sg4
F-91.28910359999999
ssS'Wayne County, West Virginia'
p3725
(dp3726
g3
F38.1598501
sg4
F-82.4752757
ssS'Val Verde County, Texas'
p3727
(dp3728
g3
F29.8687682
sg4
F-101.1617356
ssS'Harrison County, Mississippi'
p3729
(dp3730
g3
F30.432087
sg4
F-89.0179332
ssS'Marion County, Georgia'
p3731
(dp3732
g3
F32.328102
sg4
F-84.5222189
ssS'Defiance County, Ohio'
p3733
(dp3734
g3
F41.3491725
sg4
F-84.4802606
ssS'Colbert County, Alabama'
p3735
(dp3736
g3
F34.7117567
sg4
F-87.89424509999999
ssS'Pottawattamie County, Iowa'
p3737
(dp3738
g3
F41.3911501
sg4
F-95.4777811
ssS'Washington County, Mississippi'
p3739
(dp3740
g3
F33.3001466
sg4
F-90.9438468
ssS'Rutherford County, Tennessee'
p3741
(dp3742
g3
F35.7724263
sg4
F-86.3376761
ssS'McKean County, Pennsylvania'
p3743
(dp3744
g3
F41.8133351
sg4
F-78.4751945
ssS'Williamsburg County, South Carolina'
p3745
(dp3746
g3
F33.62936060000001
sg4
F-79.6502105
ssS'Dinwiddie County, Virginia'
p3747
(dp3748
g3
F37.0769043
sg4
F-77.6536125
ssS'Iberville Parish, Louisiana'
p3749
(dp3750
g3
F30.2899179
sg4
F-91.4048249
ssS'Langlade County, Wisconsin'
p3751
(dp3752
g3
F45.220083
sg4
F-89.01021329999999
ssS'Pitt County, North Carolina'
p3753
(dp3754
g3
F35.5589221
sg4
F-77.4242972
ssS'Martin County, Texas'
p3755
(dp3756
g3
F32.2364722
sg4
F-101.9804613
ssS'Barnwell County, South Carolina'
p3757
(dp3758
g3
F33.279925
sg4
F-81.47183869999999
ssS'Oneida County, New York'
p3759
(dp3760
g3
F43.2371798
sg4
F-75.4344727
ssS'Porter County, Indiana'
p3761
(dp3762
g3
F41.5248577
sg4
F-87.10237459999999
ssS'Ellsworth County, Kansas'
p3763
(dp3764
g3
F38.615225
sg4
F-98.2212979
ssS'Twiggs County, Georgia'
p3765
(dp3766
g3
F32.68356
sg4
F-83.46435509999999
ssS'Prairie County, Arkansas'
p3767
(dp3768
g3
F34.7636336
sg4
F-91.5983959
ssS'Hamilton County, Illinois'
p3769
(dp3770
g3
F38.0543187
sg4
F-88.55653099999999
ssS'Cumberland County, Maine'
p3771
(dp3772
g3
F43.81329789999999
sg4
F-70.3870587
ssS'Marshall County, Alabama'
p3773
(dp3774
g3
F34.3652297
sg4
F-86.3376761
ssS'Garfield County, Colorado'
p3775
(dp3776
g3
F39.6584775
sg4
F-107.763621
ssS'Delta County, Colorado'
p3777
(dp3778
g3
F38.8531357
sg4
F-107.763621
ssS'Alexandria city, Virginia'
p3779
(dp3780
g3
F38.8048355
sg4
F-77.0469214
ssS'Sterling County, Texas'
p3781
(dp3782
g3
F31.78149299999999
sg4
F-101.0711758
ssS'Polk County, Georgia'
p3783
(dp3784
g3
F34.0132398
sg4
F-85.14793639999999
ssS'Catawba County, North Carolina'
p3785
(dp3786
g3
F35.6840748
sg4
F-81.2518833
ssS'Lamar County, Georgia'
p3787
(dp3788
g3
F33.0765883
sg4
F-84.14351359999999
ssS'Snohomish County, Washington'
p3789
(dp3790
g3
F48.0329979
sg4
F-121.8339472
ssS'Uvalde County, Texas'
p3791
(dp3792
g3
F29.3342663
sg4
F-99.8124935
ssS'Weld County, Colorado'
p3793
(dp3794
g3
F40.3920718
sg4
F-104.7158226
ssS'Tippecanoe County, Indiana'
p3795
(dp3796
g3
F40.34697310000001
sg4
F-86.8220341
ssS'Mercer County, Pennsylvania'
p3797
(dp3798
g3
F41.2619821
sg4
F-80.1875065
ssS'Union County, New Mexico'
p3799
(dp3800
g3
F36.37243340000001
sg4
F-103.3587288
ssS'La Salle County, Texas'
p3801
(dp3802
g3
F28.2758921
sg4
F-99.1013498
ssS'Midland County, Texas'
p3803
(dp3804
g3
F31.8781368
sg4
F-101.9804613
ssS'Knox County, Kentucky'
p3805
(dp3806
g3
F36.9260578
sg4
F-83.8897057
ssS'Payette County, Idaho'
p3807
(dp3808
g3
F44.02051850000001
sg4
F-116.7205398
ssS'Llano County, Texas'
p3809
(dp3810
g3
F30.692528
sg4
F-98.7481167
ssS'Putnam County, Florida'
p3811
(dp3812
g3
F29.6265157
sg4
F-81.77870209999999
ssS'Florence County, South Carolina'
p3813
(dp3814
g3
F33.9828684
sg4
F-79.6502105
ssS'Orange County, Texas'
p3815
(dp3816
g3
F30.1484033
sg4
F-93.86553029999999
ssS'Butte County, California'
p3817
(dp3818
g3
F39.6253952
sg4
F-121.5370003
ssS'Rains County, Texas'
p3819
(dp3820
g3
F32.9009129
sg4
F-95.77212039999999
ssS'Garza County, Texas'
p3821
(dp3822
g3
F33.1955897
sg4
F-101.2523792
ssS'Union County, Indiana'
p3823
(dp3824
g3
F39.6637751
sg4
F-84.8984775
ssS'Des Moines County, Iowa'
p3825
(dp3826
g3
F40.9123374
sg4
F-91.17369939999999
ssS'Kemper County, Mississippi'
p3827
(dp3828
g3
F32.8018452
sg4
F-88.7108964
ssS'Calvert County, Maryland'
p3829
(dp3830
g3
F38.49495030000001
sg4
F-76.5025742
ssS'Attala County, Mississippi'
p3831
(dp3832
g3
F33.1683267
sg4
F-89.62516459999999
ssS'Leake County, Mississippi'
p3833
(dp3834
g3
F32.8073509
sg4
F-89.4742177
ssS'Juniata County, Pennsylvania'
p3835
(dp3836
g3
F40.5521642
sg4
F-77.4242972
ssS'Freeborn County, Minnesota'
p3837
(dp3838
g3
F43.6656285
sg4
F-93.33889169999999
ssS'Crawford County, Illinois'
p3839
(dp3840
g3
F39.0499568
sg4
F-87.77633329999999
ssS'Gregg County, Texas'
p3841
(dp3842
g3
F32.4892547
sg4
F-94.8520636
ssS'Real County, Texas'
p3843
(dp3844
g3
F29.8851459
sg4
F-99.8124935
ssS'Flathead Indian Reservation, Montana'
p3845
(dp3846
g3
F47.5002121
sg4
F-114.3342905
ssS'Castro County, Texas'
p3847
(dp3848
g3
F34.4985047
sg4
F-102.3463875
ssS'Rusk County, Texas'
p3849
(dp3850
g3
F32.1741887
sg4
F-94.81059549999999
ssS'Jefferson County, Illinois'
p3851
(dp3852
g3
F38.2267348
sg4
F-88.86469799999999
ssS'Muskingum County, Ohio'
p3853
(dp3854
g3
F39.9478393
sg4
F-81.9534815
ssS'Anderson County, Texas'
p3855
(dp3856
g3
F31.776932
sg4
F-95.6457951
ssS'Pocahontas County, Iowa'
p3857
(dp3858
g3
F42.6918039
sg4
F-94.645035
ssS'Douglas County, Oregon'
p3859
(dp3860
g3
F43.1260694
sg4
F-123.2492364
ssS'Chambers County, Texas'
p3861
(dp3862
g3
F29.7524956
sg4
F-94.6863782
ssS'Delaware County, Pennsylvania'
p3863
(dp3864
g3
F39.907793
sg4
F-75.3878525
ssS'Clackamas County, Oregon'
p3865
(dp3866
g3
F45.2023855
sg4
F-122.1188945
ssS'Madera County, California'
p3867
(dp3868
g3
F37.251926
sg4
F-119.6962677
ssS'Pendleton County, Kentucky'
p3869
(dp3870
g3
F38.7283386
sg4
F-84.3962535
ssS'Southampton County, Virginia'
p3871
(dp3872
g3
F36.6788512
sg4
F-77.10249019999999
ssS'Clay County, Iowa'
p3873
(dp3874
g3
F43.1368038
sg4
F-95.1432068
ssS'Union County, Mississippi'
p3875
(dp3876
g3
F34.459946
sg4
F-88.9796776
ssS'Jackson County, Alabama'
p3877
(dp3878
g3
F34.7090388
sg4
F-86.0121573
ssS'Kings County, California'
p3879
(dp3880
g3
F36.0988489
sg4
F-119.8815203
ssS'Winona County, Minnesota'
p3881
(dp3882
g3
F44.006499
sg4
F-91.7538817
ssS'Teton County, Wyoming'
p3883
(dp3884
g3
F43.853632
sg4
F-110.6314491
ssS'Pemiscot County, Missouri'
p3885
(dp3886
g3
F36.2195399
sg4
F-89.81303559999999
ssS'Henry County, Virginia'
p3887
(dp3888
g3
F36.6588867
sg4
F-79.96403389999999
ssS'Jefferson County, New York'
p3889
(dp3890
g3
F44.0607421
sg4
F-75.9927652
ssS'Schley County, Georgia'
p3891
(dp3892
g3
F32.2736136
sg4
F-84.3121264
ssS'Faribault County, Minnesota'
p3893
(dp3894
g3
F43.6448766
sg4
F-93.9878427
ssS'Worcester County, Maryland'
p3895
(dp3896
g3
F38.1584227
sg4
F-75.4344727
ssS'Skagit County, Washington'
p3897
(dp3898
g3
F48.4241961
sg4
F-121.7114362
ssS'Broomfield County, Colorado'
p3899
(dp3900
g3
F39.9205411
sg4
F-105.0866504
ssS'Scotland County, North Carolina'
p3901
(dp3902
g3
F34.8451203
sg4
F-79.4703885
ssS'Warren County, Pennsylvania'
p3903
(dp3904
g3
F41.8143331
sg4
F-79.29021329999999
ssS'Terrell County, Georgia'
p3905
(dp3906
g3
F31.7370079
sg4
F-84.4802606
ssS'St. Charles Parish, Louisiana'
p3907
(dp3908
g3
F29.9273657
sg4
F-90.3371889
ssS'Walworth County, Wisconsin'
p3909
(dp3910
g3
F42.6202834
sg4
F-88.55653099999999
ssS'Jefferson County, Montana'
p3911
(dp3912
g3
F46.1450553
sg4
F-112.0752952
ssS'Screven County, Georgia'
p3913
(dp3914
g3
F32.7074673
sg4
F-81.6035062
ssS'Red River Parish, Louisiana'
p3915
(dp3916
g3
F32.0842949
sg4
F-93.3792057
ssS'Cibola County, New Mexico'
p3917
(dp3918
g3
F35.0947557
sg4
F-107.8583868
ssS'Essex County, Massachusetts'
p3919
(dp3920
g3
F42.7051144
sg4
F-70.90712359999999
ssS'Issaquena County, Mississippi'
p3921
(dp3922
g3
F32.8494351
sg4
F-91.02032240000001
ssS'Choctaw County, Mississippi'
p3923
(dp3924
g3
F33.3914427
sg4
F-89.28472510000002
ssS'Jasper County, Illinois'
p3925
(dp3926
g3
F39.0554965
sg4
F-88.0900762
ssS'Floyd County, Kentucky'
p3927
(dp3928
g3
F37.5455463
sg4
F-82.7778579
ssS'Ottawa County, Ohio'
p3929
(dp3930
g3
F41.6268435
sg4
F-82.99316069999999
ssS'Eastland County, Texas'
p3931
(dp3932
g3
F32.3240465
sg4
F-98.7481167
ssS'Palo Pinto County, Texas'
p3933
(dp3934
g3
F32.7511956
sg4
F-98.31041839999999
ssS'Newport News city, Virginia'
p3935
(dp3936
g3
F37.0870821
sg4
F-76.4730122
ssS'Buchanan County, Iowa'
p3937
(dp3938
g3
F42.4566006
sg4
F-91.9099238
ssS'Stewart County, Georgia'
p3939
(dp3940
g3
F32.1141344
sg4
F-84.8150781
ssS'Marion County, South Carolina'
p3941
(dp3942
g3
F34.0879705
sg4
F-79.33528989999999
ssS'Washoe County, Nevada'
p3943
(dp3944
g3
F40.5608387
sg4
F-119.6035495
ssS'McDuffie County, Georgia'
p3945
(dp3946
g3
F33.5258626
sg4
F-82.5185837
ssS'Hardin County, Ohio'
p3947
(dp3948
g3
F40.704961
sg4
F-83.67739279999999
ssS'Winston County, Mississippi'
p3949
(dp3950
g3
F33.1650338
sg4
F-89.0179332
ssS'Portage County, Ohio'
p3951
(dp3952
g3
F41.1887572
sg4
F-81.2518833
ssS'Wayne County, Ohio'
p3953
(dp3954
g3
F40.7588598
sg4
F-81.9534815
ssS'Berrien County, Georgia'
p3955
(dp3956
g3
F31.3118535
sg4
F-83.2077645
ssS'Cumberland County, Tennessee'
p3957
(dp3958
g3
F35.8994729
sg4
F-85.02334599999999
ssS'Chouteau County, Montana'
p3959
(dp3960
g3
F48.0033098
sg4
F-110.4737958
ssS'Hampton County, South Carolina'
p3961
(dp3962
g3
F32.8084577
sg4
F-81.1196075
ssS'Shelby County, Indiana'
p3963
(dp3964
g3
F39.4952877
sg4
F-85.84862360000001
ssS'Appanoose County, Iowa'
p3965
(dp3966
g3
F40.6806102
sg4
F-92.8577105
ssS'Norfolk city, Virginia'
p3967
(dp3968
g3
F36.8507689
sg4
F-76.28587259999999
ssS'Avery County, North Carolina'
p3969
(dp3970
g3
F36.1198414
sg4
F-81.909826
ssS'Mesa County, Colorado'
p3971
(dp3972
g3
F38.9585381
sg4
F-108.6175626
ssS'Otsego County, New York'
p3973
(dp3974
g3
F42.5779779
sg4
F-75.06111469999999
ssS'Stephens County, Texas'
p3975
(dp3976
g3
F32.7399935
sg4
F-98.8400144
ssS'Perry County, Arkansas'
p3977
(dp3978
g3
F34.96032
sg4
F-92.8976254
ssS'Marinette County, Wisconsin'
p3979
(dp3980
g3
F45.3581961
sg4
F-88.0649606
ssS'Winston County, Alabama'
p3981
(dp3982
g3
F34.1690087
sg4
F-87.3413599
ssS'Montour County, Pennsylvania'
p3983
(dp3984
g3
F41.02623029999999
sg4
F-76.6874701
ssS'Judith Basin County, Montana'
p3985
(dp3986
g3
F47.0609367
sg4
F-110.2577109
ssS'Chautauqua County, New York'
p3987
(dp3988
g3
F42.2312829
sg4
F-79.560344
ssS'Geauga County, Ohio'
p3989
(dp3990
g3
F41.4641521
sg4
F-81.20781640000001
ssS'Crow Wing County, Minnesota'
p3991
(dp3992
g3
F46.5957987
sg4
F-94.1401699
ssS'Rio Arriba County, New Mexico'
p3993
(dp3994
g3
F36.6162892
sg4
F-106.7234639
ssS'Montgomery County, Ohio'
p3995
(dp3996
g3
F39.7620028
sg4
F-84.3542049
ssS'Kern County, California'
p3997
(dp3998
g3
F35.4937274
sg4
F-118.8596804
ssS'Cayuga County, New York'
p3999
(dp4000
g3
F42.7655231
sg4
F-76.5488232
ssS'Charles City County, Virginia'
p4001
(dp4002
g3
F37.4018216
sg4
F-77.1485163
ssS'Lampasas County, Texas'
p4003
(dp4004
g3
F31.2737682
sg4
F-98.2212979
ssS'Stillwater County, Montana'
p4005
(dp4006
g3
F45.7001096
sg4
F-109.3922403
ssS'Hall County, Nebraska'
p4007
(dp4008
g3
F40.8817333
sg4
F-98.5721016
ssS'Hancock County, Mississippi'
p4009
(dp4010
g3
F30.3887582
sg4
F-89.5120084
ssS'Kanawha County, West Virginia'
p4011
(dp4012
g3
F38.2556905
sg4
F-81.42789839999999
ssS'Tuscaloosa County, Alabama'
p4013
(dp4014
g3
F33.3227653
sg4
F-87.460397
ssS'Grays Harbor County, Washington'
p4015
(dp4016
g3
F46.9953526
sg4
F-123.7012468
ssS'Calhoun County, Georgia'
p4017
(dp4018
g3
F31.5621777
sg4
F-84.6479124
ssS'Livingston Parish, Louisiana'
p4019
(dp4020
g3
F30.4340146
sg4
F-90.6773046
ssS'Yancey County, North Carolina'
p4021
(dp4022
g3
F35.888897
sg4
F-82.34518899999999
ssS'Gloucester County, Virginia'
p4023
(dp4024
g3
F37.4128281
sg4
F-76.5025742
ssS'Kauai County, Hawaii'
p4025
(dp4026
g3
F21.9661076
sg4
F-159.5737912
ssS'Pickens County, South Carolina'
p4027
(dp4028
g3
F34.9046217
sg4
F-82.6483442
ssS'Polk County, Tennessee'
p4029
(dp4030
g3
F35.1371578
sg4
F-84.56414699999999
ssS'Mitchell County, North Carolina'
p4031
(dp4032
g3
F36.0277763
sg4
F-82.1496049
ssS'New York County, New York'
p4033
(dp4034
g3
F40.7830603
sg4
F-73.9712488
ssS'Caddo County, Oklahoma'
p4035
(dp4036
g3
F35.10556
sg4
F-98.3088441
ssS'Switzerland County, Indiana'
p4037
(dp4038
g3
F38.8419394
sg4
F-85.0649071
ssS'Smith County, Mississippi'
p4039
(dp4040
g3
F32.0826588
sg4
F-89.4742177
ssS'Clinton County, New York'
p4041
(dp4042
g3
F44.7904203
sg4
F-73.6005824
ssS'Walker County, Texas'
p4043
(dp4044
g3
F30.6815394
sg4
F-95.6457951
ssS'Nez Perce County, Idaho'
p4045
(dp4046
g3
F46.41818139999999
sg4
F-116.622876
ssS'Sampson County, North Carolina'
p4047
(dp4048
g3
F34.9197548
sg4
F-78.3842227
ssS'Phillips County, Colorado'
p4049
(dp4050
g3
F40.53713339999999
sg4
F-102.3463875
ssS'Atascosa County, Texas'
p4051
(dp4052
g3
F28.8661281
sg4
F-98.5721016
ssS'Wyoming County, West Virginia'
p4053
(dp4054
g3
F37.6339466
sg4
F-81.5596427
ssS'Scott County, Illinois'
p4055
(dp4056
g3
F39.6094934
sg4
F-90.4879916
ssS'Rockbridge County, Virginia'
p4057
(dp4058
g3
F37.8062214
sg4
F-79.5153773
ssS'St. Joseph County, Michigan'
p4059
(dp4060
g3
F41.9118044
sg4
F-85.52002399999999
ssS'Frederick County, Maryland'
p4061
(dp4062
g3
F39.3844507
sg4
F-77.4701972
ssS'Chester County, Tennessee'
p4063
(dp4064
g3
F35.4270939
sg4
F-88.6723578
ssS'Jasper County, Georgia'
p4065
(dp4066
g3
F33.3246924
sg4
F-83.7199136
ssS'Arapahoe County, Colorado'
p4067
(dp4068
g3
F39.62031
sg4
F-104.332644
ssS'Fulton County, Illinois'
p4069
(dp4070
g3
F40.5531823
sg4
F-90.2244662
ssS'Hot Spring County, Arkansas'
p4071
(dp4072
g3
F34.3393795
sg4
F-92.97755579999999
ssS'Garfield County, Montana'
p4073
(dp4074
g3
F47.2662361
sg4
F-107.1263146
ssS'Passaic County, New Jersey'
p4075
(dp4076
g3
F41.1231647
sg4
F-74.35874729999999
ssS'Kershaw County, South Carolina'
p4077
(dp4078
g3
F34.3671762
sg4
F-80.5882803
ssS'Middlesex County, Connecticut'
p4079
(dp4080
g3
F41.46985050000001
sg4
F-72.4731529
ssS'Cambria County, Pennsylvania'
p4081
(dp4082
g3
F40.4894231
sg4
F-78.74762079999999
ssS'Rockwall County, Texas'
p4083
(dp4084
g3
F32.8721646
sg4
F-96.365157
ssS'Carter County, Kentucky'
p4085
(dp4086
g3
F38.3204714
sg4
F-83.03613759999999
ssS'Warren County, Kentucky'
p4087
(dp4088
g3
F36.9886043
sg4
F-86.49965460000001
ssS'Centre County, Pennsylvania'
p4089
(dp4090
g3
F40.8765649
sg4
F-77.8367282
ssS'Warren County, North Carolina'
p4091
(dp4092
g3
F36.4352131
sg4
F-78.0195387
ssS'Osceola County, Florida'
p4093
(dp4094
g3
F28.1019838
sg4
F-81.0754657
ssS'Middlesex County, Massachusetts'
p4095
(dp4096
g3
F42.467206
sg4
F-71.2874209
ssS'Butler County, Alabama'
p4097
(dp4098
g3
F31.6760284
sg4
F-86.6611083
ssS'Goochland County, Virginia'
p4099
(dp4100
g3
F37.74159969999999
sg4
F-77.973865
ssS'Polk County, North Carolina'
p4101
(dp4102
g3
F35.2686842
sg4
F-82.1713632
ssS'Collin County, Texas'
p4103
(dp4104
g3
F33.1795213
sg4
F-96.49297969999999
ssS'Nelson County, Virginia'
p4105
(dp4106
g3
F37.7478599
sg4
F-78.8835548
ssS'Hopkins County, Kentucky'
p4107
(dp4108
g3
F37.3153093
sg4
F-87.5791287
ssS'Solano County, California'
p4109
(dp4110
g3
F38.3104969
sg4
F-121.9017954
ssS'Decatur County, Georgia'
p4111
(dp4112
g3
F30.8720058
sg4
F-84.5222189
ssS'Dimmit County, Texas'
p4113
(dp4114
g3
F28.4116514
sg4
F-99.8124935
ssS'Weakley County, Tennessee'
p4115
(dp4116
g3
F36.3428865
sg4
F-88.7108964
ssS'Crawford County, Wisconsin'
p4117
(dp4118
g3
F43.2491547
sg4
F-90.8294002
ssS'Colorado County, Texas'
p4119
(dp4120
g3
F29.5378648
sg4
F-96.49297969999999
ssS'Hudspeth County, Texas'
p4121
(dp4122
g3
F31.5707433
sg4
F-105.5943388
ssS'Campbell County, Wyoming'
p4123
(dp4124
g3
F44.3956107
sg4
F-105.4489183
ssS'Chilton County, Alabama'
p4125
(dp4126
g3
F32.944392
sg4
F-86.6611083
ssS'Muscatine County, Iowa'
p4127
(dp4128
g3
F41.5156913
sg4
F-91.13530200000001
ssS'Brewster County, Texas'
p4129
(dp4130
g3
F29.6629938
sg4
F-103.3587288
ssS'Maries County, Missouri'
p4131
(dp4132
g3
F38.1738674
sg4
F-91.949021
ssS'Obion County, Tennessee'
p4133
(dp4134
g3
F36.3469439
sg4
F-89.1705998
ssS'Leflore County, Mississippi'
p4135
(dp4136
g3
F33.5274427
sg4
F-90.37483540000001
ssS'Susquehanna County, Pennsylvania'
p4137
(dp4138
g3
F41.745553
sg4
F-75.8069082
ssS'Calumet County, Wisconsin'
p4139
(dp4140
g3
F44.1586082
sg4
F-88.24611829999999
ssS'Pitkin County, Colorado'
p4141
(dp4142
g3
F39.159101
sg4
F-106.8178377
ssS'Nelson County, Kentucky'
p4143
(dp4144
g3
F37.7647455
sg4
F-85.47880649999999
ssS'Cumberland County, Kentucky'
p4145
(dp4146
g3
F36.7776446
sg4
F-85.35496499999999
ssS'Hardeman County, Tennessee'
p4147
(dp4148
g3
F35.1229172
sg4
F-89.0179332
ssS'Marquette County, Michigan'
p4149
(dp4150
g3
F46.644579
sg4
F-87.5593823
ssS'Mercer County, New Jersey'
p4151
(dp4152
g3
F40.3028533
sg4
F-74.7337069
ssS'Petersburg city, Virginia'
p4153
(dp4154
g3
F37.2279279
sg4
F-77.40192669999999
ssS'Reeves County, Texas'
p4155
(dp4156
g3
F31.4307975
sg4
F-103.7289167
ssS'Fayette County, Iowa'
p4157
(dp4158
g3
F42.9258199
sg4
F-91.9099238
ssS'Fort Bend County, Texas'
p4159
(dp4160
g3
F29.5692614
sg4
F-95.81428849999999
ssS'Taylor County, Florida'
p4161
(dp4162
g3
F30.0993767
sg4
F-83.67739279999999
ssS'Caddo Parish, Louisiana'
p4163
(dp4164
g3
F32.6136798
sg4
F-93.86553029999999
ssS'Natrona County, Wyoming'
p4165
(dp4166
g3
F42.8313837
sg4
F-106.912251
ssS'Walla Walla County, Washington'
p4167
(dp4168
g3
F46.23698419999999
sg4
F-118.5854769
ssS'Putnam County, Indiana'
p4169
(dp4170
g3
F39.690997
sg4
F-86.8220341
ssS'Yukon-Koyukuk Census Area, Alaska'
p4171
(dp4172
g3
F65.8443667
sg4
F-153.4302993
ssS'Oglala Sioux Tribe of the Pine Ridge Reservation, South Dakota'
p4173
(dp4174
g3
F43.02554079999999
sg4
F-102.5562743
ssS'Kootenai County, Idaho'
p4175
(dp4176
g3
F47.7568407
sg4
F-116.6222056
ssS'Jackson County, Oklahoma'
p4177
(dp4178
g3
F34.5834576
sg4
F-99.456155
ssS"Queen Anne's County, Maryland"
p4179
(dp4180
g3
F39.0263572
sg4
F-76.1319953
ssS'Stafford County, Virginia'
p4181
(dp4182
g3
F38.4334566
sg4
F-77.4242972
ssS'Baxter County, Arkansas'
p4183
(dp4184
g3
F36.3261815
sg4
F-92.38136209999999
ssS'Hempstead County, Arkansas'
p4185
(dp4186
g3
F33.6530112
sg4
F-93.66232389999999
ssS'Monroe County, New York'
p4187
(dp4188
g3
F43.2841246
sg4
F-77.7452081
ssS'Lawrence County, Mississippi'
p4189
(dp4190
g3
F31.5369786
sg4
F-90.0746767
ssS'Duval County, Florida'
p4191
(dp4192
g3
F30.3500511
sg4
F-81.6035062
ssS'Douglas County, Wisconsin'
p4193
(dp4194
g3
F46.3490012
sg4
F-91.75768889999999
ssS'Pasquotank County, North Carolina'
p4195
(dp4196
g3
F36.2927068
sg4
F-76.317414
ssS'Van Zandt County, Texas'
p4197
(dp4198
g3
F32.4936974
sg4
F-95.81428849999999
ssS'Sioux County, Iowa'
p4199
(dp4200
g3
F43.08699360000001
sg4
F-96.15269850000001
ssS'Marion County, Kansas'
p4201
(dp4202
g3
F38.349424
sg4
F-97.179026
ssS'Bent County, Colorado'
p4203
(dp4204
g3
F38.0036339
sg4
F-103.0817903
ssS'Jack County, Texas'
p4205
(dp4206
g3
F33.2560382
sg4
F-98.2212979
ssS'Banks County, Georgia'
p4207
(dp4208
g3
F34.378542
sg4
F-83.46435509999999
ssS'Hertford County, North Carolina'
p4209
(dp4210
g3
F36.3761772
sg4
F-77.0564464
ssS'Johnson County, Kentucky'
p4211
(dp4212
g3
F37.8048335
sg4
F-82.8640623
ssS'Muhlenberg County, Kentucky'
p4213
(dp4214
g3
F37.17725009999999
sg4
F-87.14228949999999
ssS'Kankakee County, Illinois'
p4215
(dp4216
g3
F41.1790977
sg4
F-87.77633329999999
ssS'Hocking County, Ohio'
p4217
(dp4218
g3
F39.4909358
sg4
F-82.4752757
ssS'Matagorda County, Texas'
p4219
(dp4220
g3
F28.8204837
sg4
F-95.9832577
ssS'Calhoun County, Alabama'
p4221
(dp4222
g3
F33.7701576
sg4
F-85.80766
ssS'Grafton County, New Hampshire'
p4223
(dp4224
g3
F43.9087929
sg4
F-71.825994
ssS'Medina County, Ohio'
p4225
(dp4226
g3
F41.080133
sg4
F-81.9534815
ssS'Elmore County, Alabama'
p4227
(dp4228
g3
F32.5647083
sg4
F-86.0121573
ssS'Jackson County, Mississippi'
p4229
(dp4230
g3
F30.4278212
sg4
F-88.55653099999999
ssS'Clay County, Indiana'
p4231
(dp4232
g3
F39.36862199999999
sg4
F-87.14228949999999
ssS'Milwaukee County, Wisconsin'
p4233
(dp4234
g3
F43.03879490000001
sg4
F-87.9065334
ssS'Powhatan County, Virginia'
p4235
(dp4236
g3
F37.5643209
sg4
F-77.88245959999999
ssS'Amelia County, Virginia'
p4237
(dp4238
g3
F37.3212714
sg4
F-77.973865
ssS'Jackson County, Florida'
p4239
(dp4240
g3
F30.7150882
sg4
F-85.1894045
ssS'Denali Borough, Alaska'
p4241
(dp4242
g3
F63.82571729999999
sg4
F-149.7317834
ssS'New Haven County, Connecticut'
p4243
(dp4244
g3
F41.3266911
sg4
F-72.8042797
ssS'Pinal County, Arizona'
p4245
(dp4246
g3
F32.8162061
sg4
F-111.2845025
ssS'Bristol County, Rhode Island'
p4247
(dp4248
g3
F41.7257893
sg4
F-71.3111773
ssS'Nowata County, Oklahoma'
p4249
(dp4250
g3
F36.7344388
sg4
F-95.6457951
ssS'Starke County, Indiana'
p4251
(dp4252
g3
F41.2715616
sg4
F-86.6207943
ssS'Worth County, Iowa'
p4253
(dp4254
g3
F43.3580686
sg4
F-93.33889169999999
ssS'Eureka County, Nevada'
p4255
(dp4256
g3
F39.5126741
sg4
F-115.9637979
ssS'Wabash County, Indiana'
p4257
(dp4258
g3
F40.8033875
sg4
F-85.84862360000001
ssS'Wheeler County, Georgia'
p4259
(dp4260
g3
F32.0999794
sg4
F-82.6915429
ssS'Cuyahoga County, Ohio'
p4261
(dp4262
g3
F41.433923
sg4
F-81.67582
ssS'Jackson County, Kansas'
p4263
(dp4264
g3
F39.4241422
sg4
F-95.81428849999999
ssS'Clinton County, Iowa'
p4265
(dp4266
g3
F41.878563
sg4
F-90.563609
ssS'Dodge County, Wisconsin'
p4267
(dp4268
g3
F43.3994215
sg4
F-88.7108964
ssS'Oceana County, Michigan'
p4269
(dp4270
g3
F43.643476
sg4
F-86.2895052
ssS'Horry County, South Carolina'
p4271
(dp4272
g3
F33.9196567
sg4
F-78.9288242
ssS'Calhoun County, Illinois'
p4273
(dp4274
g3
F39.1733216
sg4
F-90.658333
ssS'Montgomery County, New York'
p4275
(dp4276
g3
F42.915521
sg4
F-74.4525627
ssS'De Soto Parish, Louisiana'
p4277
(dp4278
g3
F32.0310567
sg4
F-93.66232389999999
ssS'Middlesex County, New Jersey'
p4279
(dp4280
g3
F40.4111363
sg4
F-74.35874729999999
ssS'Poinsett County, Arkansas'
p4281
(dp4282
g3
F35.6078586
sg4
F-90.6393702
ssS'Scott County, Mississippi'
p4283
(dp4284
g3
F32.4456315
sg4
F-89.4742177
ssS'Brown County, Illinois'
p4285
(dp4286
g3
F39.9379573
sg4
F-90.7152749
ssS'Hendricks County, Indiana'
p4287
(dp4288
g3
F39.8064942
sg4
F-86.5400674
ssS'Rowan County, Kentucky'
p4289
(dp4290
g3
F38.177068
sg4
F-83.46435509999999
ssS'Indian River County, Florida'
p4291
(dp4292
g3
F27.6947732
sg4
F-80.54384499999999
ssS'Madison County, North Carolina'
p4293
(dp4294
g3
F35.8237518
sg4
F-82.6915429
ssS'Harmon County, Oklahoma'
p4295
(dp4296
g3
F34.7305114
sg4
F-99.8124935
ssS'Tensas Parish, Louisiana'
p4297
(dp4298
g3
F32.077218
sg4
F-91.28910359999999
ssS'Cameron County, Pennsylvania'
p4299
(dp4300
g3
F41.4261564
sg4
F-78.1564432
ssS'Fulton County, Ohio'
p4301
(dp4302
g3
F41.5719341
sg4
F-84.14351359999999
ssS'Kent County, Rhode Island'
p4303
(dp4304
g3
F41.6579147
sg4
F-71.7147951
ssS'Vermilion Parish, Louisiana'
p4305
(dp4306
g3
F29.8601413
sg4
F-92.38136209999999
ssS'Chemung County, New York'
p4307
(dp4308
g3
F42.1362071
sg4
F-76.7798172
ssS'Seneca County, Ohio'
p4309
(dp4310
g3
F41.1585179
sg4
F-83.1649001
ssS'Seminole County, Georgia'
p4311
(dp4312
g3
F30.9331429
sg4
F-84.8984775
ssS'Fluvanna County, Virginia'
p4313
(dp4314
g3
F37.8532863
sg4
F-78.24761459999999
ssS'Wahkiakum County, Washington'
p4315
(dp4316
g3
F46.3259463
sg4
F-123.4945593
ssS'Culpeper County, Virginia'
p4317
(dp4318
g3
F38.491821
sg4
F-77.973865
ssS'Brooks County, Georgia'
p4319
(dp4320
g3
F30.8730159
sg4
F-83.54965659999999
ssS'Summit County, Colorado'
p4321
(dp4322
g3
F39.5911871
sg4
F-106.0640179
ssS'Fairfield County, Connecticut'
p4323
(dp4324
g3
F41.2559654
sg4
F-73.37086959999999
ssS'Pierce County, Washington'
p4325
(dp4326
g3
F47.0675877
sg4
F-122.1295269
ssS'Hancock County, Kentucky'
p4327
(dp4328
g3
F37.8280909
sg4
F-86.761749
ssS'Randolph County, Indiana'
p4329
(dp4330
g3
F40.12045320000001
sg4
F-85.02334599999999
ssS'Hancock County, Illinois'
p4331
(dp4332
g3
F40.38493649999999
sg4
F-91.13530200000001
ssS'York County, Pennsylvania'
p4333
(dp4334
g3
F39.9512496
sg4
F-76.7336521
ssS'Caribou County, Idaho'
p4335
(dp4336
g3
F42.75386839999999
sg4
F-111.6660725
ssS'Butler County, Ohio'
p4337
(dp4338
g3
F39.440463
sg4
F-84.5222189
ssS'Elliott County, Kentucky'
p4339
(dp4340
g3
F38.1575088
sg4
F-83.12200740000002
ssS"O'Brien County, Iowa"
p4341
(dp4342
g3
F43.1131245
sg4
F-95.6457951
ssS'Union County, Pennsylvania'
p4343
(dp4344
g3
F40.9894888
sg4
F-77.0564464
ssS'Henderson County, Kentucky'
p4345
(dp4346
g3
F37.7415161
sg4
F-87.5791287
ssS'Sumter County, Florida'
p4347
(dp4348
g3
F28.6747526
sg4
F-82.08429009999999
ssS'Mississippi County, Arkansas'
p4349
(dp4350
g3
F35.8279728
sg4
F-90.0746767
ssS'Natchitoches Parish, Louisiana'
p4351
(dp4352
g3
F31.6801229
sg4
F-93.17796589999999
ssS'Sanilac County, Michigan'
p4353
(dp4354
g3
F43.4069041
sg4
F-82.7347142
ssS'Madison County, Iowa'
p4355
(dp4356
g3
F41.2922367
sg4
F-93.9878427
ssS'York County, South Carolina'
p4357
(dp4358
g3
F34.9871367
sg4
F-81.2518833
ssS'Marshall County, Iowa'
p4359
(dp4360
g3
F42.0407088
sg4
F-92.9375739
ssS'Hart County, Georgia'
p4361
(dp4362
g3
F34.3500039
sg4
F-82.95015579999999
ssS'Evangeline Parish, Louisiana'
p4363
(dp4364
g3
F30.7821781
sg4
F-92.38136209999999
ssS'Wexford County, Michigan'
p4365
(dp4366
g3
F44.387157
sg4
F-85.52002399999999
ssS'Allen Parish, Louisiana'
p4367
(dp4368
g3
F30.5887484
sg4
F-92.8577105
ssS'Cleburne County, Alabama'
p4369
(dp4370
g3
F33.6261707
sg4
F-85.52002399999999
ssS'Sweet Grass County, Montana'
p4371
(dp4372
g3
F45.76727959999999
sg4
F-109.8979907
ssS'Washington County, Wisconsin'
p4373
(dp4374
g3
F43.3932586
sg4
F-88.24611829999999
ssS'Mercer County, Ohio'
p4375
(dp4376
g3
F40.59405479999999
sg4
F-84.68974949999999
ssS'Pickett County, Tennessee'
p4377
(dp4378
g3
F36.5541091
sg4
F-85.14793639999999
ssS'San Juan County, Colorado'
p4379
(dp4380
g3
F37.7573704
sg4
F-107.71625
ssS'St. Johns County, Florida'
p4381
(dp4382
g3
F29.9719419
sg4
F-81.42789839999999
ssS'Liberty County, Montana'
p4383
(dp4384
g3
F48.4917189
sg4
F-110.9704148
ssS'Briscoe County, Texas'
p4385
(dp4386
g3
F34.526178
sg4
F-101.1617356
ssS'Franklin County, Pennsylvania'
p4387
(dp4388
g3
F39.8923855
sg4
F-77.6536125
ssS'Shelby County, Illinois'
p4389
(dp4390
g3
F39.3980704
sg4
F-88.86469799999999
ssS'Boyd County, Kentucky'
p4391
(dp4392
g3
F38.3833265
sg4
F-82.6915429
ssS'Le Sueur County, Minnesota'
p4393
(dp4394
g3
F44.461555
sg4
F-93.9151438
ssS'Gila County, Arizona'
p4395
(dp4396
g3
F33.6370567
sg4
F-110.5215459
ssS'Hamilton County, Tennessee'
p4397
(dp4398
g3
F35.1618966
sg4
F-85.14793639999999
ssS'Missaukee County, Michigan'
p4399
(dp4400
g3
F44.366621
sg4
F-85.02334599999999
ssS'Liberty County, Texas'
p4401
(dp4402
g3
F30.1633593
sg4
F-94.81059549999999
ssS'Somerset County, Maine'
p4403
(dp4404
g3
F45.5913402
sg4
F-69.9999212
ssS'Mills County, Texas'
p4405
(dp4406
g3
F31.6137467
sg4
F-98.5721016
ssS'Colfax County, Nebraska'
p4407
(dp4408
g3
F41.6268435
sg4
F-97.0068393
ssS'Le Flore County, Oklahoma'
p4409
(dp4410
g3
F34.8622042
sg4
F-94.645035
ssS'Stevens County, Washington'
p4411
(dp4412
g3
F48.4558249
sg4
F-117.9059909
ssS'Fayette County, Illinois'
p4413
(dp4414
g3
F39.0669568
sg4
F-89.0179332
ssS'Gallia County, Ohio'
p4415
(dp4416
g3
F38.8619254
sg4
F-82.34518899999999
ssS'Essex County, New York'
p4417
(dp4418
g3
F44.0107408
sg4
F-73.9507728
ssS'Chatham County, Georgia'
p4419
(dp4420
g3
F31.9994194
sg4
F-81.1196075
ssS'Abbeville County, South Carolina'
p4421
(dp4422
g3
F34.1891221
sg4
F-82.4752757
ssS'Crawford County, Indiana'
p4423
(dp4424
g3
F38.3054548
sg4
F-86.4592091
ssS'Polk County, Wisconsin'
p4425
(dp4426
g3
F45.4259345
sg4
F-92.3388439
ssS'Barnstable County, Massachusetts'
p4427
(dp4428
g3
F41.69909579999999
sg4
F-70.32091129999999
ssS'St. Charles County, Missouri'
p4429
(dp4430
g3
F38.7338885
sg4
F-90.8294002
ssS'Upson County, Georgia'
p4431
(dp4432
g3
F32.9047684
sg4
F-84.3121264
ssS'Jackson County, Tennessee'
p4433
(dp4434
g3
F36.4004931
sg4
F-85.64348700000001
ssS'Howard County, Arkansas'
p4435
(dp4436
g3
F34.1318213
sg4
F-94.028678
ssS'Nueces County, Texas'
p4437
(dp4438
g3
F27.7693351
sg4
F-97.4814163
ssS'Dutchess County, New York'
p4439
(dp4440
g3
F41.7784372
sg4
F-73.7477857
ssS'Russell County, Kentucky'
p4441
(dp4442
g3
F36.9806476
sg4
F-85.0649071
ssS'Monona County, Iowa'
p4443
(dp4444
g3
F42.001594
sg4
F-95.9832577
ssS'Upshur County, West Virginia'
p4445
(dp4446
g3
F38.8696797
sg4
F-80.23213129999999
ssS'Ward 9 Police Jury Ward, Louisiana'
p4447
(dp4448
g3
F32.24025580000001
sg4
F-92.7160147
ssS'Lake County, Oregon'
p4449
(dp4450
g3
F42.6986344
sg4
F-120.565768
ssS'Union County, Arkansas'
p4451
(dp4452
g3
F33.1431092
sg4
F-92.539603
ssS'Comanche County, Texas'
p4453
(dp4454
g3
F31.9755461
sg4
F-98.5721016
ssS'Kendall County, Illinois'
p4455
(dp4456
g3
F41.5507043
sg4
F-88.4403883
ssS'Ringgold County, Iowa'
p4457
(dp4458
g3
F40.7973811
sg4
F-94.315422
ssS'Emmet County, Michigan'
p4459
(dp4460
g3
F45.6418969
sg4
F-84.9769067
ssS'Kings County, New York'
p4461
(dp4462
g3
F40.6781784
sg4
F-73.9441579
ssS'White County, Georgia'
p4463
(dp4464
g3
F34.6567728
sg4
F-83.7199136
ssS'Placer County, California'
p4465
(dp4466
g3
F39.0915751
sg4
F-120.8039474
ssS'Clark County, Washington'
p4467
(dp4468
g3
F45.7466471
sg4
F-122.5194378
ssS'Elmore County, Idaho'
p4469
(dp4470
g3
F43.1154284
sg4
F-115.5264458
ssS'Kiowa County, Colorado'
p4471
(dp4472
g3
F38.3769671
sg4
F-102.7135121
ssS'Chattahoochee County, Georgia'
p4473
(dp4474
g3
F32.2952274
sg4
F-84.8150781
ssS'Mackinac County, Michigan'
p4475
(dp4476
g3
F46.02337199999999
sg4
F-84.9963081
ssS'Jefferson Davis Parish, Louisiana'
p4477
(dp4478
g3
F30.2672346
sg4
F-92.8178291
ssS'Elko County, Nevada'
p4479
(dp4480
g3
F41.2220182
sg4
F-115.2837585
ssS'Clarke County, Virginia'
p4481
(dp4482
g3
F39.15165830000001
sg4
F-77.973865
ssS'Lee County, Iowa'
p4483
(dp4484
g3
F40.70686630000001
sg4
F-91.44346900000001
ssS'Tulsa County, Oklahoma'
p4485
(dp4486
g3
F36.1593471
sg4
F-95.94097099999999
ssS'Coke County, Texas'
p4487
(dp4488
g3
F31.82776629999999
sg4
F-100.5296115
ssS'Boulder County, Colorado'
p4489
(dp4490
g3
F40.1512114
sg4
F-105.5005483
ssS'Warrick County, Indiana'
p4491
(dp4492
g3
F38.0736703
sg4
F-87.2618328
ssS'Lafayette County, Arkansas'
p4493
(dp4494
g3
F33.2511695
sg4
F-93.62178019999999
ssS'Huron County, Michigan'
p4495
(dp4496
g3
F43.9466791
sg4
F-82.82097399999999
ssS'Willacy County, Texas'
p4497
(dp4498
g3
F26.4948223
sg4
F-97.69822719999999
ssS'Warren County, Georgia'
p4499
(dp4500
g3
F33.4470392
sg4
F-82.6915429
ssS'Cass County, Nebraska'
p4501
(dp4502
g3
F40.8755529
sg4
F-96.15269850000001
ssS'Fremont County, Idaho'
p4503
(dp4504
g3
F44.2242743
sg4
F-111.4790031
ssS'Lincoln County, Oklahoma'
p4505
(dp4506
g3
F35.6342646
sg4
F-96.83509989999999
ssS'Florence County, Wisconsin'
p4507
(dp4508
g3
F45.8161658
sg4
F-88.3547524
ssS'Sabine County, Texas'
p4509
(dp4510
g3
F31.2974233
sg4
F-93.8248241
ssS'Wilkinson County, Mississippi'
p4511
(dp4512
g3
F31.1646163
sg4
F-91.28910359999999
ssS'Yakima County, Washington'
p4513
(dp4514
g3
F46.543606
sg4
F-120.7558292
ssS'Schuyler County, New York'
p4515
(dp4516
g3
F42.3796425
sg4
F-76.8720961
ssS'Bamberg County, South Carolina'
p4517
(dp4518
g3
F33.2074402
sg4
F-81.0754657
ssS'Boone County, Illinois'
p4519
(dp4520
g3
F42.34849759999999
sg4
F-88.8263006
ssS'Highland County, Virginia'
p4521
(dp4522
g3
F38.3999743
sg4
F-79.60528839999999
ssS'Cape May County, New Jersey'
p4523
(dp4524
g3
F39.105884
sg4
F-74.8273184
ssS'Jasper County, Iowa'
p4525
(dp4526
g3
F41.6414924
sg4
F-93.0175712
ssS'Zavala County, Texas'
p4527
(dp4528
g3
F28.8801264
sg4
F-99.72326729999999
ssS'Riley County, Kansas'
p4529
(dp4530
g3
F39.3686475
sg4
F-96.83509989999999
ssS'Perry County, Ohio'
p4531
(dp4532
g3
F39.7641353
sg4
F-82.25832969999999
ssS'Louisa County, Virginia'
p4533
(dp4534
g3
F37.9925909
sg4
F-77.973865
ssS'Mecosta County, Michigan'
p4535
(dp4536
g3
F43.6201025
sg4
F-85.35496499999999
ssS'Runnels County, Texas'
p4537
(dp4538
g3
F31.8714508
sg4
F-99.99122539999999
ssS'Webster County, Iowa'
p4539
(dp4540
g3
F42.3974963
sg4
F-94.15137639999999
ssS'Williamson County, Tennessee'
p4541
(dp4542
g3
F35.9179271
sg4
F-86.86218269999999
ssS'Volusia County, Florida'
p4543
(dp4544
g3
F29.0279842
sg4
F-81.0754657
ssS'Mason County, Texas'
p4545
(dp4546
g3
F30.6556091
sg4
F-99.2785583
ssS'Lincoln County, New Mexico'
p4547
(dp4548
g3
F33.8853309
sg4
F-105.4068079
ssS'Hopewell city, Virginia'
p4549
(dp4550
g3
F37.3043154
sg4
F-77.28720009999999
ssS'Perry County, Alabama'
p4551
(dp4552
g3
F32.598888
sg4
F-87.30161319999999
ssS'Wyoming County, Pennsylvania'
p4553
(dp4554
g3
F41.5004703
sg4
F-76.0391909
ssS'Green County, Kentucky'
p4555
(dp4556
g3
F37.2570117
sg4
F-85.56121
ssS'Morris County, Texas'
p4557
(dp4558
g3
F33.122847
sg4
F-94.7691586
ssS'Lamar County, Alabama'
p4559
(dp4560
g3
F33.6923649
sg4
F-88.0900762
ssS'Steuben County, Indiana'
p4561
(dp4562
g3
F41.6115471
sg4
F-84.981754
ssS'Adams County, Mississippi'
p4563
(dp4564
g3
F31.5305353
sg4
F-91.28910359999999
ssS'Prince George County, Virginia'
p4565
(dp4566
g3
F37.1593052
sg4
F-77.2405153
ssS'Dickinson County, Iowa'
p4567
(dp4568
g3
F43.4049388
sg4
F-95.18492189999999
ssS'Clark County, Indiana'
p4569
(dp4570
g3
F38.4492903
sg4
F-85.7256372
ssS'Jefferson County, Pennsylvania'
p4571
(dp4572
g3
F41.147013
sg4
F-78.9288242
ssS'Franklin County, Indiana'
p4573
(dp4574
g3
F39.4233977
sg4
F-85.0649071
ssS'Pottawatomie County, Oklahoma'
p4575
(dp4576
g3
F35.275439
sg4
F-97.0068393
ssS'Hamilton County, New York'
p4577
(dp4578
g3
F43.4764406
sg4
F-74.4056612
ssS'Gaines County, Texas'
p4579
(dp4580
g3
F32.6987519
sg4
F-102.7135121
ssS'Dickson County, Tennessee'
p4581
(dp4582
g3
F36.1459799
sg4
F-87.30161319999999
ssS'Cumberland County, Pennsylvania'
p4583
(dp4584
g3
F40.1299841
sg4
F-77.2405153
ssS'Kaufman County, Texas'
p4585
(dp4586
g3
F32.5889211
sg4
F-96.3089299
ssS'San Francisco County, California'
p4587
(dp4588
g3
F37.7749295
sg4
F-122.4194155
ssS'Jefferson County, Alabama'
p4589
(dp4590
g3
F33.4914122
sg4
F-86.9824288
ssS'Madison County, Georgia'
p4591
(dp4592
g3
F34.0990245
sg4
F-83.2077645
ssS'Jerome County, Idaho'
p4593
(dp4594
g3
F42.712818
sg4
F-114.3287857
ssS'Beaver County, Pennsylvania'
p4595
(dp4596
g3
F40.6367812
sg4
F-80.365865
ssS'Clermont County, Ohio'
p4597
(dp4598
g3
F39.0928449
sg4
F-84.1857115
ssS'Macon County, Missouri'
p4599
(dp4600
g3
F39.871344
sg4
F-92.539603
ssS'Cleveland County, North Carolina'
p4601
(dp4602
g3
F35.361354
sg4
F-81.6035062
ssS'Presidio County, Texas'
p4603
(dp4604
g3
F29.9480666
sg4
F-104.1001326
ssS'Ferry County, Washington'
p4605
(dp4606
g3
F48.4718375
sg4
F-118.4974069
ssS'Stephenson County, Illinois'
p4607
(dp4608
g3
F42.31448899999999
sg4
F-89.62516459999999
ssS'Fauquier County, Virginia'
p4609
(dp4610
g3
F38.7208787
sg4
F-77.79097759999999
ssS'Covington County, Alabama'
p4611
(dp4612
g3
F31.3066438
sg4
F-86.49965460000001
ssS'Mason County, Washington'
p4613
(dp4614
g3
F47.4251146
sg4
F-123.1951376
ssS'Alamance County, North Carolina'
p4615
(dp4616
g3
F36.0117388
sg4
F-79.4253776
ssS'Guthrie County, Iowa'
p4617
(dp4618
g3
F41.7530909
sg4
F-94.479976
ssS'Buena Vista city, Virginia'
p4619
(dp4620
g3
F37.7343004
sg4
F-79.35392379999999
ssS'Kennebec County, Maine'
p4621
(dp4622
g3
F44.4499153
sg4
F-69.7038278
ssS'Carson City, Nevada'
p4623
(dp4624
g3
F39.1637984
sg4
F-119.7674034
ssS'Monroe County, Arkansas'
p4625
(dp4626
g3
F34.5918747
sg4
F-91.13530200000001
ssS'Knox County, Texas'
p4627
(dp4628
g3
F33.6734243
sg4
F-99.8124935
ssS'Richmond County, Georgia'
p4629
(dp4630
g3
F33.3205339
sg4
F-82.08429009999999
ssS'St. Landry Parish, Louisiana'
p4631
(dp4632
g3
F30.6036535
sg4
F-92.0665197
ssS'Miami County, Ohio'
p4633
(dp4634
g3
F40.081473
sg4
F-84.1857115
ssS'Onondaga County, New York'
p4635
(dp4636
g3
F43.026819
sg4
F-76.17837390000001
ssS'Emmet County, Iowa'
p4637
(dp4638
g3
F43.34943
sg4
F-94.6863782
ssS'Union County, North Carolina'
p4639
(dp4640
g3
F34.9338651
sg4
F-80.54384499999999
ssS'Page County, Iowa'
p4641
(dp4642
g3
F40.7635099
sg4
F-95.1432068
ssS'Armstrong County, Pennsylvania'
p4643
(dp4644
g3
F40.8790518
sg4
F-79.4703885
ssS'Mobile County, Alabama'
p4645
(dp4646
g3
F30.6082227
sg4
F-88.24611829999999
ssS'Benton County, Indiana'
p4647
(dp4648
g3
F40.644786
sg4
F-87.3413599
ssS'Menard County, Illinois'
p4649
(dp4650
g3
F40.0221361
sg4
F-89.81303559999999
ssS'Osage County, Kansas'
p4651
(dp4652
g3
F38.6009003
sg4
F-95.6457951
ssS'Nemaha County, Nebraska'
p4653
(dp4654
g3
F40.4074745
sg4
F-95.81428849999999
ssS'Angelina County, Texas'
p4655
(dp4656
g3
F31.2704698
sg4
F-94.645035
ssS'Cedar County, Nebraska'
p4657
(dp4658
g3
F42.56103239999999
sg4
F-97.179026
ssS'Prairie County, Montana'
p4659
(dp4660
g3
F46.7980893
sg4
F-105.4045354
ssS'Newton County, Arkansas'
p4661
(dp4662
g3
F35.9603994
sg4
F-93.17796589999999
ssS'Clark County, Wisconsin'
p4663
(dp4664
g3
F44.8480735
sg4
F-90.7532809
ssS'Limestone County, Texas'
p4665
(dp4666
g3
F31.5461078
sg4
F-96.663812
ssS'Jackson County, Texas'
p4667
(dp4668
g3
F28.9340886
sg4
F-96.5356449
ssS'Clallam County, Washington'
p4669
(dp4670
g3
F48.0405122
sg4
F-124.016766
ssS'Cherokee County, Alabama'
p4671
(dp4672
g3
F34.1665322
sg4
F-85.684578
ssS'King William County, Virginia'
p4673
(dp4674
g3
F37.7372121
sg4
F-77.1485163
ssS'Idaho County, Idaho'
p4675
(dp4676
g3
F45.9019541
sg4
F-115.7237432
ssS'Caldwell County, Missouri'
p4677
(dp4678
g3
F39.6660775
sg4
F-93.9878427
ssS'Macon County, North Carolina'
p4679
(dp4680
g3
F35.1197519
sg4
F-83.33618799999999
ssS'Crawford County, Kansas'
p4681
(dp4682
g3
F37.45579900000001
sg4
F-94.81059549999999
ssS'McLean County, Illinois'
p4683
(dp4684
g3
F40.5478429
sg4
F-88.86469799999999
ssS'Schenectady County, New York'
p4685
(dp4686
g3
F42.8493445
sg4
F-73.98300290000002
ssS'Perry County, Illinois'
p4687
(dp4688
g3
F38.0612022
sg4
F-89.3226954
ssS'Hancock County, Indiana'
p4689
(dp4690
g3
F39.8249915
sg4
F-85.84862360000001
ssS'Wheeler County, Texas'
p4691
(dp4692
g3
F35.3830893
sg4
F-100.3497895
ssS'Bureau County, Illinois'
p4693
(dp4694
g3
F41.35991560000001
sg4
F-89.4742177
ssS'Johnson County, Illinois'
p4695
(dp4696
g3
F37.42037639999999
sg4
F-88.90306
ssS'Shenandoah County, Virginia'
p4697
(dp4698
g3
F38.8413778
sg4
F-78.5660852
ssS'Adams County, Washington'
p4699
(dp4700
g3
F46.9272238
sg4
F-118.51098
ssS'Klickitat County, Washington'
p4701
(dp4702
g3
F45.888824
sg4
F-120.9711029
ssS'Menard County, Texas'
p4703
(dp4704
g3
F30.9802428
sg4
F-99.8124935
ssS'Ogemaw County, Michigan'
p4705
(dp4706
g3
F44.3270741
sg4
F-84.1857115
ssS'Van Buren County, Iowa'
p4707
(dp4708
g3
F40.7001158
sg4
F-91.9099238
ssS'Murray County, Georgia'
p4709
(dp4710
g3
F34.7928029
sg4
F-84.7315563
ssS'Pointe Coupee Parish, Louisiana'
p4711
(dp4712
g3
F30.6102166
sg4
F-91.5983959
ssS'Pike County, Mississippi'
p4713
(dp4714
g3
F31.1704959
sg4
F-90.37483540000001
ssS'Ware County, Georgia'
p4715
(dp4716
g3
F31.134411
sg4
F-82.4752757
ssS'Yates County, New York'
p4717
(dp4718
g3
F42.64308459999999
sg4
F-77.1485163
ssS'Bell County, Kentucky'
p4719
(dp4720
g3
F36.741122
sg4
F-83.63484299999999
ssS'Greene County, Mississippi'
p4721
(dp4722
g3
F31.1646163
sg4
F-88.7108964
ssS'Brooks County, Texas'
p4723
(dp4724
g3
F27.0273057
sg4
F-98.2212979
ssS'Lea County, New Mexico'
p4725
(dp4726
g3
F32.8968816
sg4
F-103.3587288
ssS'Lincoln County, Kentucky'
p4727
(dp4728
g3
F37.4751264
sg4
F-84.6479124
ssS'White County, Tennessee'
p4729
(dp4730
g3
F35.9189882
sg4
F-85.52002399999999
ssS'Carter County, Tennessee'
p4731
(dp4732
g3
F36.2638604
sg4
F-82.12783999999999
ssS'Boundary County, Idaho'
p4733
(dp4734
g3
F48.7987617
sg4
F-116.5627065
ssS'Henderson County, Illinois'
p4735
(dp4736
g3
F40.83355479999999
sg4
F-90.9438468
ssS'Fergus County, Montana'
p4737
(dp4738
g3
F47.2126745
sg4
F-109.4141
ssS'Eagle County, Colorado'
p4739
(dp4740
g3
F39.576406
sg4
F-106.7234639
ssS'Wayne County, Georgia'
p4741
(dp4742
g3
F31.5092107
sg4
F-81.909826
ssS'Kenedy County, Texas'
p4743
(dp4744
g3
F26.8697147
sg4
F-97.69822719999999
ssS'Gray County, Texas'
p4745
(dp4746
g3
F35.3352558
sg4
F-100.8903099
ssS'Pulaski County, Missouri'
p4747
(dp4748
g3
F37.8727481
sg4
F-92.2236667
ssS'Brown County, Minnesota'
p4749
(dp4750
g3
F44.2294379
sg4
F-94.645035
ssS'Dane County, Wisconsin'
p4751
(dp4752
g3
F43.0186073
sg4
F-89.5497632
ssS'Sutter County, California'
p4753
(dp4754
g3
F39.0219764
sg4
F-121.6739371
ssS'Columbia County, Wisconsin'
p4755
(dp4756
g3
F43.40466319999999
sg4
F-89.3226954
ssS'Kleberg County, Texas'
p4757
(dp4758
g3
F27.4308339
sg4
F-97.69822719999999
ssS'Pike County, Missouri'
p4759
(dp4760
g3
F39.3964742
sg4
F-91.28910359999999
ssS'Currituck County, North Carolina'
p4761
(dp4762
g3
F36.4189826
sg4
F-75.94632399999999
ssS'Warren County, Tennessee'
p4763
(dp4764
g3
F35.7115652
sg4
F-85.80766
ssS'Allen County, Ohio'
p4765
(dp4766
g3
F40.769946
sg4
F-84.14351359999999
ssS'Rush County, Indiana'
p4767
(dp4768
g3
F39.6481768
sg4
F-85.52002399999999
ssS'Richland Parish, Louisiana'
p4769
(dp4770
g3
F32.3887281
sg4
F-91.7928402
ssS'McDonough County, Illinois'
p4771
(dp4772
g3
F40.3885122
sg4
F-90.6773046
ssS'Dixon County, Nebraska'
p4773
(dp4774
g3
F42.4257719
sg4
F-96.83509989999999
ssS'Greene County, Virginia'
p4775
(dp4776
g3
F38.3120359
sg4
F-78.4524591
ssS'Bradford County, Pennsylvania'
p4777
(dp4778
g3
F41.83625019999999
sg4
F-76.5488232
ssS'Decatur County, Tennessee'
p4779
(dp4780
g3
F35.595087
sg4
F-88.1291387
ssS'Adams County, Indiana'
p4781
(dp4782
g3
F40.7249237
sg4
F-84.8984775
ssS'Baltimore County, Maryland'
p4783
(dp4784
g3
F39.4647665
sg4
F-76.7336521
ssS'St. Helena Parish, Louisiana'
p4785
(dp4786
g3
F30.8021866
sg4
F-90.6773046
ssS'Martinsville city, Virginia'
p4787
(dp4788
g3
F36.6915262
sg4
F-79.8725386
ssS'Sarasota County, Florida'
p4789
(dp4790
g3
F27.1995986
sg4
F-82.34518899999999
ssS'Cook County, Illinois'
p4791
(dp4792
g3
F41.7376587
sg4
F-87.697554
ssS'Pike County, Indiana'
p4793
(dp4794
g3
F38.4110583
sg4
F-87.2618328
ssS'Colusa County, California'
p4795
(dp4796
g3
F39.1040645
sg4
F-122.2653887
ssS'Hill County, Texas'
p4797
(dp4798
g3
F32.0621768
sg4
F-97.179026
ssS'Hillsborough County, New Hampshire'
p4799
(dp4800
g3
F42.83347939999999
sg4
F-71.6673352
ssS'Trempealeau County, Wisconsin'
p4801
(dp4802
g3
F44.23975919999999
sg4
F-91.366216
ssS'Bee County, Texas'
p4803
(dp4804
g3
F28.3624206
sg4
F-97.69822719999999
ssS'Lake County, Ohio'
p4805
(dp4806
g3
F41.7112668
sg4
F-81.24558549999999
ssS'Winneshiek County, Iowa'
p4807
(dp4808
g3
F43.2362611
sg4
F-91.9099238
ssS'Marion County, Arkansas'
p4809
(dp4810
g3
F36.3194702
sg4
F-92.6983868
ssS'Republic County, Kansas'
p4811
(dp4812
g3
F39.807989
sg4
F-97.69822719999999
ssS'Park County, Colorado'
p4813
(dp4814
g3
F39.0897928
sg4
F-105.5943388
ssS'Scott County, Indiana'
p4815
(dp4816
g3
F38.7008005
sg4
F-85.7256372
ssS'Powell County, Montana'
p4817
(dp4818
g3
F46.9311447
sg4
F-112.9745473
ssS'Nobles County, Minnesota'
p4819
(dp4820
g3
F43.71969319999999
sg4
F-95.81428849999999
ssS'Monroe County, Michigan'
p4821
(dp4822
g3
F41.9738893
sg4
F-83.5070203
ssS'Bath County, Kentucky'
p4823
(dp4824
g3
F38.1068164
sg4
F-83.7199136
ssS'Cherokee County, North Carolina'
p4825
(dp4826
g3
F35.1134803
sg4
F-84.05902900000001
ssS'Clark County, Idaho'
p4827
(dp4828
g3
F44.1975553
sg4
F-112.3755496
ssS'Webster County, West Virginia'
p4829
(dp4830
g3
F38.5070383
sg4
F-80.365865
ssS'Lawrence County, Pennsylvania'
p4831
(dp4832
g3
F40.957855
sg4
F-80.365865
ssS'Brown County, Wisconsin'
p4833
(dp4834
g3
F44.45616740000001
sg4
F-87.9334803
ssS'Manistee County, Michigan'
p4835
(dp4836
g3
F44.2444704
sg4
F-86.32422249999999
ssS'Strafford County, New Hampshire'
p4837
(dp4838
g3
F43.238329
sg4
F-71.0236044
ssS'Chaves County, New Mexico'
p4839
(dp4840
g3
F33.4757392
sg4
F-104.4723301
ssS'Kane County, Illinois'
p4841
(dp4842
g3
F41.987884
sg4
F-88.4016041
ssS'Clearfield County, Pennsylvania'
p4843
(dp4844
g3
F40.9519685
sg4
F-78.5660852
ssS'Searcy County, Arkansas'
p4845
(dp4846
g3
F35.9721
sg4
F-92.6983868
ssS'Georgetown County, South Carolina'
p4847
(dp4848
g3
F33.4213399
sg4
F-79.29021329999999
ssS'Henry County, Ohio'
p4849
(dp4850
g3
F41.3659897
sg4
F-84.01674229999999
ssS'Red River County, Texas'
p4851
(dp4852
g3
F33.6072302
sg4
F-94.976654
ssS'Beaverhead County, Montana'
p4853
(dp4854
g3
F45.2135118
sg4
F-113.1093046
ssS'Kimble County, Texas'
p4855
(dp4856
g3
F30.4338473
sg4
F-99.8124935
ssS'Juneau County, Wisconsin'
p4857
(dp4858
g3
F43.8672979
sg4
F-90.0746767
ssS'Peach County, Georgia'
p4859
(dp4860
g3
F32.5892926
sg4
F-83.8260884
ssS'Union County, Florida'
p4861
(dp4862
g3
F30.0745112
sg4
F-82.34518899999999
ssS'Coffee County, Georgia'
p4863
(dp4864
g3
F31.5182285
sg4
F-82.82097399999999
ssS'Donley County, Texas'
p4865
(dp4866
g3
F34.9875355
sg4
F-100.8903099
ssS'Lowndes County, Alabama'
p4867
(dp4868
g3
F32.221464
sg4
F-86.6611083
ssS'Paulding County, Ohio'
p4869
(dp4870
g3
F41.0783882
sg4
F-84.68974949999999
ssS'Tama County, Iowa'
p4871
(dp4872
g3
F42.1292592
sg4
F-92.539603
ssS'Tompkins County, New York'
p4873
(dp4874
g3
F42.4575747
sg4
F-76.5488232
ssS'Pine County, Minnesota'
p4875
(dp4876
g3
F46.0983087
sg4
F-92.80707079999999
ssS'Lancaster County, South Carolina'
p4877
(dp4878
g3
F34.7253411
sg4
F-80.6770787
ssS'Butler County, Kentucky'
p4879
(dp4880
g3
F37.2086395
sg4
F-86.7013894
ssS'Hardin County, Tennessee'
p4881
(dp4882
g3
F35.1142443
sg4
F-88.24611829999999
ssS'Putnam County, Ohio'
p4883
(dp4884
g3
F41.0540759
sg4
F-84.1857115
ssS'Franklin County, Iowa'
p4885
(dp4886
g3
F42.7372361
sg4
F-93.33889169999999
ssS'Appomattox County, Virginia'
p4887
(dp4888
g3
F37.402489
sg4
F-78.792953
ssS'Wilkes County, Georgia'
p4889
(dp4890
g3
F33.808264
sg4
F-82.7778579
ssS'Falls County, Texas'
p4891
(dp4892
g3
F31.1636412
sg4
F-97.0068393
ssS'Dixie County, Florida'
p4893
(dp4894
g3
F29.5207227
sg4
F-83.1649001
ssS'McCreary County, Kentucky'
p4895
(dp4896
g3
F36.6973499
sg4
F-84.4802606
ssS'Cleveland County, Arkansas'
p4897
(dp4898
g3
F33.86580070000001
sg4
F-92.2236667
ssS'Island County, Washington'
p4899
(dp4900
g3
F48.19765
sg4
F-122.579457
ssS'Medina County, Texas'
p4901
(dp4902
g3
F29.2987871
sg4
F-99.0128926
ssS'Ventura County, California'
p4903
(dp4904
g3
F34.3704884
sg4
F-119.1390642
ssS'Pennington County, South Dakota'
p4905
(dp4906
g3
F43.8901111
sg4
F-102.2547919
ssS'Chesapeake city, Virginia'
p4907
(dp4908
g3
F36.7682088
sg4
F-76.2874927
ssS'Brevard County, Florida'
p4909
(dp4910
g3
F28.263933
sg4
F-80.7214417
ssS'Madison County, Illinois'
p4911
(dp4912
g3
F38.9041402
sg4
F-89.9253233
ssS'DuPage County, Illinois'
p4913
(dp4914
g3
F41.8243831
sg4
F-88.0900762
ssS'Frio County, Texas'
p4915
(dp4916
g3
F28.831355
sg4
F-99.1013498
ssS'Madison County, Kentucky'
p4917
(dp4918
g3
F37.7143001
sg4
F-84.3121264
ssS'Dougherty County, Georgia'
p4919
(dp4920
g3
F31.5439375
sg4
F-84.2278796
ssS'Buncombe County, North Carolina'
p4921
(dp4922
g3
F35.59313770000001
sg4
F-82.4752757
ssS'Webster County, Kentucky'
p4923
(dp4924
g3
F37.4892188
sg4
F-87.7369607
ssS'Fairfax city, Virginia'
p4925
(dp4926
g3
F38.84622359999999
sg4
F-77.30637329999999
ssS'Ulster County, New York'
p4927
(dp4928
g3
F41.8586493
sg4
F-74.3118212
ssS'East Baton Rouge Parish, Louisiana'
p4929
(dp4930
g3
F30.5693593
sg4
F-91.09693999999999
ssS'Tetlin ANV/ANVSA, Alaska'
p4931
(dp4932
g3
Nsg4
NssS'Chattooga County, Georgia'
p4933
(dp4934
g3
F34.4632661
sg4
F-85.31362179999999
ssS'Monroe County, Wisconsin'
p4935
(dp4936
g3
F43.9412045
sg4
F-90.7532809
ssS'Maricopa County, Arizona'
p4937
(dp4938
g3
F33.2917968
sg4
F-112.4291464
ssS'Vermilion County, Illinois'
p4939
(dp4940
g3
F40.122469
sg4
F-87.697554
ssS'Jones County, North Carolina'
p4941
(dp4942
g3
F35.0306293
sg4
F-77.3324425
ssS'Hardeman County, Texas'
p4943
(dp4944
g3
F34.2177242
sg4
F-99.634135
ssS'Crisp County, Georgia'
p4945
(dp4946
g3
F31.8875724
sg4
F-83.804868
ssS'Shelby County, Missouri'
p4947
(dp4948
g3
F39.8388716
sg4
F-92.1057549
ssS'Hidalgo County, New Mexico'
p4949
(dp4950
g3
F31.93552
sg4
F-108.7125791
ssS'Copiah County, Mississippi'
p4951
(dp4952
g3
F31.9012453
sg4
F-90.37483540000001
ssS'Brunswick County, Virginia'
p4953
(dp4954
g3
F36.7570589
sg4
F-77.8367282
ssS'Clarion County, Pennsylvania'
p4955
(dp4956
g3
F41.1982095
sg4
F-79.4703885
ssS'Montgomery County, Pennsylvania'
p4957
(dp4958
g3
F40.2290075
sg4
F-75.3878525
ssS'Sac County, Iowa'
p4959
(dp4960
g3
F42.3573517
sg4
F-95.1432068
ssS'St. Croix County, Wisconsin'
p4961
(dp4962
g3
F45.0497844
sg4
F-92.3875695
ssS'Rio Blanco County, Colorado'
p4963
(dp4964
g3
F39.9814297
sg4
F-108.2377519
ssS'McClain County, Oklahoma'
p4965
(dp4966
g3
F35.0282316
sg4
F-97.4814163
ssS'Fountain County, Indiana'
p4967
(dp4968
g3
F40.22271970000001
sg4
F-87.3347575
ssS'Franklin County, Mississippi'
p4969
(dp4970
g3
F31.4883928
sg4
F-90.86751339999999
ssS'Smith County, Texas'
p4971
(dp4972
g3
F32.3352505
sg4
F-95.3102505
ssS'Umatilla County, Oregon'
p4973
(dp4974
g3
F45.7750424
sg4
F-118.7606453
ssS'Dade County, Georgia'
p4975
(dp4976
g3
F34.9109017
sg4
F-85.47880649999999
ssS'Davie County, North Carolina'
p4977
(dp4978
g3
F35.9367033
sg4
F-80.5882803
ssS'Anson County, North Carolina'
p4979
(dp4980
g3
F34.9054732
sg4
F-80.1875065
ssS'King County, Washington'
p4981
(dp4982
g3
F47.5480339
sg4
F-121.9836029
ssS'Lee County, Mississippi'
p4983
(dp4984
g3
F34.2354138
sg4
F-88.7108964
ssS'Camden County, Georgia'
p4985
(dp4986
g3
F30.898276
sg4
F-81.6035062
ssS'Greene County, Pennsylvania'
p4987
(dp4988
g3
F39.8113005
sg4
F-80.1875065
ssS'Perquimans County, North Carolina'
p4989
(dp4990
g3
F36.1329763
sg4
F-76.4100267
ssS'Carbon County, Montana'
p4991
(dp4992
g3
F45.2820195
sg4
F-109.100255
ssS'Orange County, North Carolina'
p4993
(dp4994
g3
F36.0263022
sg4
F-79.1096901
ssS'Jackson County, Iowa'
p4995
(dp4996
g3
F42.1560699
sg4
F-90.52578229999999
ssS'Pecos County, Texas'
p4997
(dp4998
g3
F30.8253214
sg4
F-102.6216211
ssS'Montgomery County, Alabama'
p4999
(dp5000
g3
F32.2077447
sg4
F-86.17517590000001
ssS'Los Alamos County, New Mexico'
p5001
(dp5002
g3
F35.84962489999999
sg4
F-106.3228338
ssS'Philadelphia County, Pennsylvania'
p5003
(dp5004
g3
F40.0152766
sg4
F-75.1311874
ss.